(dp1
S'Ppron'
p2
cre
_compile
p3
(S"^(hed|he'd|her|hers|herself|hes|he's|him|himself|his|i|Id|I'd|I'll|Im|I'm|ive|I've|lets|let's|me|mine|my|myself|oneself|our|ours|ourselves|she|she'd|she'll|shes|she's|thee|their.*|them|themselves|they|theyd|they'd|theyll|they'll|theyve|they've|thine|thou|thoust|thy|us|we|we'd|we'll|we're|weve|we've|ya|yall|y'all|ye|you|youd|you'd|youll|you'll|your |youre|you're|yours|youve|you've)$"
p4
I34
tRp5
sS'Inhib'
p6
g3
(S'^(abandon.*|abstain.*|anal|avert.*|avoid.*|ban|banned|banning|bans|barrier.*|binding|block|blocked|blocker.*|blocking|blocks|bound.*|brake.*|bridle.*|careful.*|caut.*|cease.*|ceasing|compulsiv.*|confin.*|conflict.*|conserv.*|constrain.*|constrict.*|contain.*|contradic.*|control.*|curb.*|curtail.*|defenc.*|defens.*|delay.*|denia.*|denie.*|deny.*|disciplin.*|discourag.*|disregard.*|duti.*|duty|enclos.*|fenc.*|forbid.*|forgot.*|guard.*|halt.*|hangup.*|harness.*|held|hesita.*|hold.*|ignor.*|inhib.*|interfer.*|keep|keeping.*|keeps|kept|limit.*|neglect.*|obstac.*|oppos.*|prevent.*|prohib.*|protect.*|prude|prudes|prudish.*|refrain.*|refus.*|rein.*|reluctan.*|repress.*|requir.*|reserved|responsib.*|restrain.*|restrict.*|retain.*|rigid.*|safe.*|secur.*|stiff.*|stop|stopped|stopper.*|stopping|stops|stubborn.*|subdue.*|suppress.*|taboo.*|tidi.*|tidy|tight.*|uptight.*|veto|wait|waited|waiting|waits|wariness|wary|withheld|withhold.*|yield.*)$'
p7
I34
tRp8
sS'Space'
p9
g3
(S"^(above|meter.*|across|metre.*|air|mid|among.*|middl.*|anywhere|mile.*|apart|narrow.*|area.*|nation.*|around|near|at|neared|atop|nearer|away|nearest|backward.*|nearing|below|nears|bend|north.*|bending|nowhere|bends|off|beneath|on|bent|onto|beside|open|beyond|opened|big|opening.*|bigger|out|biggest|outer.*|both|outside|bottom.*|outsides|breadth|outward.*|brink|over|broad.*|overflow.*|capacit.*|overlap.*|ceiling.*|place.*|center.*|placing.*|centre.*|platform.*|city|point|close|position.*|closed|remote.*|closer|right|closest|road.*|connection.*|room|corner|roomate.*|corners|roomed|countr.*|roomie.*|coverage|rooming|deep.*|roommate.*|dense|rooms|densit.*|section|depth.*|segment|diagonal.*|separat.*|distan.*|shape.*|down|shaping.*|downward.*|short.*|east.*|shut|edge|side|edges|sides|edging|siding|empt.*|site|enclos.*|sky.*|encompass.*|small.*|enorm.*|somewhere|entrance.*|south.*|environment.*|space|everywhere|spaced|exit.*|spaces|exterior.*|spaci.*|far|span|farther|spann.*|farthest|stair.*|fit|straight|floor.*|street.*|forward.*|stretch.*|full.*|surfac.*|further.*|surround.*|giant.*|tall|gigantic|taller|ginormous|tallest|global.*|territor.*|ground.*|thick.*|hall|thin|height.*|thinly|high|thinn.*|highe.*|tinier|horizontal.*|tiniest|huge.*|tiny|in|together|inch.*|top|inner.*|toward.*|inside|town|insides|under|interior.*|underneath|internal.*|undersid.*|internation.*|universe.*|intersect.*|up|into|upon|kilometer.*|upper|km.*|uppermost|land|upstairs|large.*|vast.*|ledge.*|verg.*|ledging|vertical.*|left|wall|level|walling|levels|walls|littl.*|west.*|local.*|where|longitud.*|wheres|low.*|where's|map|wherever|mapped|wide.*|mapping|width.*|maps|within|mass|world)$"
p10
I34
tRp11
sS'Filler'
p12
g3
(S'^(blah|idontknow|imean|like|ohwell|rr.*|yakno.*|ykn.*|youknow)$'
p13
I34
tRp14
sS'Ipron'
p15
g3
(S"^(anybod.*|anyone.*|anything|everybod.*|everyone.*|everything.*|it|itd|it'd|itll|it'll|its|it's|itself|nobod.*|other|others|somebod.*|someone.*|something.*|somewhere|stuff|that|thatd|that'd|thatll|that'll|thats|that's|these|thing.*|this|those|what|whatever|whats|what's|which|whichever|who|whod|who'd|wholl|who'll|whom|whose)$"
p16
I34
tRp17
sS'Social'
p18
g3
(S"^(acquainta.*|gives|persons|admit|giving|person's|admits|gossip.*|persua.*|admitted|grandchil.*|phone.*|admitting|granddad.*|phoning|adult|granddau.*|prais.*|adults|grandf.*|private|advice|grandkid.*|provide|advis.*|grandm.*|public|affair.*|grandpa.*|question.*|amigo.*|grandson.*|reassur.*|anybod.*|granny|receiv.*|anyone.*|group.*|refus.*|apolog.*|grownup.*|relationship.*|argu.*|grudge.*|relatives|armies|guest.*|replie.*|army|guy.*|reply.*|ask|he|request.*|asked|hear|respond.*|asking|heard|role.*|asks|hearing|roomate.*|assembl.*|hears|roomed|aunt.*|hed|roomie.*|babe.*|he'd|rooming|babies|he'll|roommate.*|baby.*|hello.*|rumor.*|bambino.*|help|rumour.*|band|helper.*|said|bands|helpful.*|say.*|bf.*|helping|secret|blam.*|helps|secretive.*|boy|her|secrets|boyf.*|hers|self |boy's|herself|send.*|boys.*|hes|sent|bro|he's|share|bros|hey|shared|brother.*|hi|shares|bud|him|sharing|buddies.*|himself|she|buddy.*|his|she'd|bye|honey|she'll|call|hubby|shes|called|human.*|she's|caller.*|husband.*|sir|calling|individual.*|sis|calls|infant|sister.*|captain|infant's|social.*|celebrat.*|infants.*|societ.*|cell|inform|somebod.*|cellphon.*|informs|someone.*|cells|insult.*|son|cellular.*|interact.*|sons|chat.*|interrup.*|son's|chick|interview.*|soulmate.*|chick'.*|involv.*|speak|chicks|kid|speaking|child|kid'.*|speaks|children.*|kidding|spoke.*|child's|kids.*|spous.*|citizen|kin|stepchild.*|citizen'.*|ladies|stepfat.*|citizens|lady|stepkid.*|colleague.*|lady's|stepmot.*|comment.*|language.*|stories|commun.*|lets|story|companion|let's|suggest.*|companions|letter|sweetheart.*|companionship.*|listen|sweetie.*|compassion.*|listened|talk|complain.*|listener.*|talkative.*|comrad.*|listening|talked|confess.*|listens|talker.*|confide|love |talking|confided|loved|talks|confides|lover.*|team.*|confiding|loves|teas.*|congregat.*|loving.*|telephon.*|consult.*|ma|tell|contact.*|ma'am|telling|contradic.*|mail|tells|convers.*|mailed|thee|counc.*|mailer.*|their.*|couns.*|mailing|them|cousin.*|mails|themselves|coworker.*|male|they|crowd.*|males|theyd|cultur.*|male's|they'd|dad.*|mam|theyll|dating|man|they'll|daughter.*|man's|theyre|deal|marriag.*|they're|describe|marrie.*|theyve|described|ma's|they've|describes|mate|thine|describing|mates|thou|disclo.*|mate's|thoust|discuss.*|mating|thy|divorc.*|meet|told|email|meeting.*|transact.*|email'.*|meets|uncle|emailed|members|uncles|emailer.*|men|uncle's|emailing|men'.*|ur|emails|mention.*|us|encourag.*|messag.*|visit.*|enemie.*|met|we|enemy.*|mob|wed|everybod.*|mobb.*|we'd|everyone.*|mobs|wedding.*|everything.*|mom|weds|ex|momma.*|welcom.*|exbf.*|mommy.*|we'll|exboyfriend.*|moms|we're|excus.*|mom's|weve|exes|mother|we've|exgf.*|motherly|who|exgirl.*|mothers|whod|exhubby.*|mr |who'd|exhusband.*|mrs|wholl|explain|mum|who'll|explained|mummy.*|whom|explaining|mums|whos|explains|mum's|who's|express.*|name|whose|exwife.*|negotiat.*|wife.*|exwive.*|neighbor.*|willing|families.*|neighbour.*|wive.*|family|nephew.*|woman|father.*|newborn.*|womanhood|fellow.*|niece.*|womanly|female.*|offer.*|woman's|feud.*|organiz.*|women.*|fiance.*|our|write|fight.*|ours|writing|flatter.*|ourselves|wrote|folks|outsider.*|ya|forgave|overhear.*|yall|forgiv.*|owner.*|y'all|fought|pa|ye|friend.*|pal|you|game.*|pals|youd|gather.*|pappy|you'd|gave|parent.*|youll|gentlem.*|participant.*|you'll|gf.*|participat.*|your |girl|partie.*|youre|girlfriend.*|partner.*|you're|girl's|party.*|yours|girls.*|pa's|youve|give|people.*|you've|giver.*|person|personal)$"
p19
I34
tRp20
sS'Humans'
p21
g3
(S"^(adult|adults|babe.*|babies|baby.*|bambino.*|boy|boy's|boys.*|chick|chick'.*|chicks|child|children.*|child's|citizen|citizen'.*|citizens|female.*|gentlem.*|girl|girl's|girls.*|grownup.*|guy.*|human.*|individual.*|infant|infant's|infants.*|kid|kid'.*|kids.*|ladies|lady|lady's|ma'am|male|males|male's|mam|man|man's|members|men|men'.*|mr |mrs|newborn.*|participant.*|partner.*|people.*|person|persons|person's|self |sir|societ.*|woman|woman's|women.*)$"
p22
I34
tRp23
sS'SheHe'
p24
g3
(S"^(he|hed|he'd|her|hers|herself|hes|he's|him|himself|his|oneself|she|she'd|she'll|shes|she's)$"
p25
I34
tRp26
sS'Percept'
p27
g3
(S"^(acid.*|purpl.*|acrid.*|quiet.*|aroma.*|rancid.*|audibl.*|rang|audio.*|rectang.*|beaut.*|red|bitter.*|redde.*|black|reddish.*|blacke.*|redness|blackish.*|reds|blacks|reek.*|blind.*|ring|blond.*|ringing|blue.*|rings|boom.*|rotten|bright.*|rough.*|brown.*|round.*|brush.*|rub|butter.*|rubbed|candle.*|rubbing|caramel.*|rubs|caress.*|saccharine|chocolate.*|said|choir.*|saliv.*|circle|salt.*|citrus.*|sampl.*|click.*|sand|cold.*|sands|cologne.*|sandy|color.*|sang|colour.*|savor.*|column.*|savour.*|concert.*|saw|cool.*|say.*|cream|scan|deaf.*|scann.*|delectabl.*|scans|delicious.*|scent.*|deoder.*|scratch.*|drie.*|scream.*|drily|screen|drool.*|scrumptious.*|dry.*|see|ear|seeing|ears|seen|edge|seer|edges|sees|edging|sharp.*|experienc.*|shine|eye.*|shini.*|eying|shiny|feel|shout.*|feeling.*|sight.*|feels|silen.*|felt|silk.*|fetid.*|skin|finger.*|skin'.*|fire|smell.*|fizz.*|smooth.*|flavor.*|sniff.*|flavour.*|snort.*|flexib.*|soft.*|fragil.*|song.*|fragran.*|sound.*|freez.*|sour|froze.*|soure.*|fruit.*|souri.*|fuzz.*|sours|gaz.*|soury|glanc.*|speak|glow.*|speaker.*|grab.*|speaking|gray.*|speaks|greas.*|speech.*|green.*|spice|grey.*|spiced|grip|spices|gripp.*|spicy|grips|spoke.*|hair.*|squar.*|hand|squeez.*|handful.*|stank|hands|stare.*|hard|staring|harde.*|stench.*|harmon.*|stink.*|hear|stroke.*|heard|stroki.*|hearing|stunk|hears|sugar.*|heavie.*|sumptuous.*|heavy.*|sunli.*|honey|sunshin.*|hot|sweet|hott.*|sweetness|hush.*|sweets|image.*|tang|inaudibl.*|tangy|inhal.*|tart|leather.*|tast.*|lick.*|thick.*|light|thin|limp.*|thinn.*|listen|thunder.*|listened|tight.*|listener.*|tongue.*|listening|touch.*|listens|triang.*|lit|unsavo.*|look|view|looked|viewer.*|looker.*|viewing.*|looking|views|looks|vivid.*|loose.*|voic.*|loud.*|waft.*|mint.*|warm.*|musi.*|watch.*|nasal|weight|noise|weighted|noises|weighting|noisy|weightless.*|nose.*|weightlift.*|nostril.*|weights|odor.*|wet|odour.*|wetly|oil.*|whiff.*|orange.*|whisper.*|palatabl.*|white.*|perfum.*|whitish.*|picture|yell|pink.*|yelled|press|yelling|pressed|yellow.*|presser.*|yells|presses|yum.*|pungen.*)$"
p28
I34
tRp29
sS'Verbs'
p30
g3
(S"^(accepted|hasnt|slept|admit|hasn't|sold|admits|hate|spent|admitted|hated|spoke.*|affected|hates|start|aint|have|started|ain't|havent|starts|am|haven't|stayed|appear|having|stood|appeared|hear|stopped|appears|heard|stuck|are|hears|studied|arent|hed|suck|aren't|he'd|sucked|arrive|held|sucks|arrived|he'll|suffered|arrives|helped|support|ask|helps|supported|asked|heres|supports|asks|here's|suppose|ate|hes|supposed|be|he's|supposes|became|hit|take|become|hope|taken|becomes|hoped|takes|becoming|hopes|taking|been|hows|talked|began|how's|taught|begin|Id|tend|begins|I'd|tended|being|I'll|tends|believe|Im|thank|believed|i'm|thanked|believes|is|thanks|bought|isnt|thatd|bring|isn't|that'd|brings|itd|thatll|brought|it'd|that'll|called|itll|thats|came|it'll|that's|can|it's|theres|cannot|ive|there's|cant|I've|theyd|can't|keep|they'd|care|keeps|theyll|cared|kept|they'll|cares|knew|theyre|carried|know|they're|carries|knows|theyve|carry|let |they've|caught|lets|think|changed|let's|thinks|come|lied|thought|comes|liked|threw|could|listen|told|couldnt|listened|took|couldn't|listens|tried|couldve|lived|tries|could've|look|try|cried|looked|turn|depended|looks|turned|depends|lost|turns|describe|love|understand|described|loved|understands|did|loves|understood|didnt|made|use|didn't|make|used|died|makes|uses|dies|may|using|dislike|mean|viewed|disliked|means|wait|dislikes|meant|waited|do|met|waits|does|might|walked|doesnt|mightve|want|doesn't|might've|wanted|doing|miss|wants|done|missed|was|dont|misses|wasnt|don't|moved|wasn't|drank|must|we'd|driven|mustnt|we'll|drove|must'nt|went|eaten|mustn't|were|emailed|mustve|we're|ended|must've|weren't|entered|need|weve|explain|needed|we've|explained|needs|whats|explains|ought|what's|fed|oughta|wheres|feel|oughtnt|where's|feels|ought'nt|whod|felt|oughtn't|who'd|fled|oughtve|wholl|flew|ought've|who'll|follow|owe|whos|followed|owed|who's|follows|owes|will|forgot.*|paid|wish|fought|played|wished|found|ran|wishes|fuck|said|woke|fucked.*|sat|woken|fucks|saw|won|gave|see|wonder|get|seem|wondered|gets|seemed|wont|give|seems|won't|given|seen|wore|gives|sees|worked|go|sensed|worn|goes|sent|would|gone|shall|wouldnt|gonna|shant|wouldn't|got|shan't|wouldve|gotta|shared|would've|gotten|she'd|written|guess|she'll|wrote|guessed|shes|youd|guesses|she's|you'd|had|should|youll|hadnt|shouldnt|you'll|hadn't|should'nt|youre|happen|shouldn't|you're|happened|shouldve|youve|happens|should've|you've|has|showed)$"
p31
I34
tRp32
sS'Quant'
p33
g3
(S'^(all|allot|alot|amount.*|another|any|anymore|besides|best |bit |bits|both|bunch|cetera|couple|difference.*|doubl.*|each|either|else|enough|entire.*|equal.*|etc|every|example.*|extent|extra|extremely|fairly|few.*|form|full.*|greater|greatest|highly|increas.*|item.*|lack.*|least|less|loads|lot|lotof|lots|lotsa|lotta|main|major|majority|many|more|most|much|mucho|neither|none|ones|own|page|part|partly|percent|piec.*|plenty|portion|remaining|rest|same|section|segment|selection|series|several|significant|simple|singl.*|some|somewhat|term|ton|tons|total|tripl.*|unique|various|version.*|whole|worst)$'
p34
I34
tRp35
sS'Discrep'
p36
g3
(S"^(besides|could|couldnt|couldn't|couldve|could've|desir.*|expect.*|hope|hoped|hopeful|hopefully|hopefulness|hopes|hoping|ideal.*|if|impossib.*|inadequa.*|lack.*|liabilit.*|mistak.*|must|mustnt|must'nt|mustn't|mustve|must've|need|needed|needing|neednt|need'nt|needn't|needs|normal|ought|oughta|oughtnt|ought'nt|oughtn't|oughtve|ought've|outstanding|prefer.*|problem.*|rather|regardless|regret.*|should|shouldnt|should'nt|shouldn't|shoulds|shouldve|should've|undesire.*|undo|unneccess.*|unneed.*|unwant.*|wanna|want|wanted|wanting|wants|wish|wished|wishes|wishing|would|wouldnt|wouldn't|wouldve|would've|yearn.*)$"
p37
I34
tRp38
sS'Relativ'
p39
g3
(S"^(above|constantly|goes|october|spring|abrupt.*|continu.*|going|off|stage|across|corner|gone|old|stair.*|act|corners|grew|olden|stand|action.*|countr.*|ground.*|older|start|advanc.*|coverage|grow|oldest|started|after|cross.*|growing|on|starter.*|afterlife.*|cruis.*|grown|once|starting|aftermath.*|current.*|growth|onto|starts|afternoon.*|cycle.*|hall|open|startup.*|afterthought.*|dail.*|hang|opened|state |afterward.*|danc.*|happening|opening.*|stay.*|again|date.*|headed|order|step|age|day.*|heading|origin|stepp.*|aged|decade.*|height.*|out|steps|ages|decay.*|high|outer.*|still|aging|december|highe.*|outside|stop|ago|deep.*|hik.*|outsides|stopped|ahead|delay.*|histor.*|outward.*|stopper.*|air|deliver.*|horizontal.*|over|stopper.*|already|dense|hour.*|overflow.*|stopping|always|densit.*|huge.*|overlap.*|stops|among.*|depart|hurrie.*|pass|straight|ancient.*|departed|hurry.*|passed|street.*|annual.*|departing|immediate|passes|stretch.*|anymore|departs|immediately|passing|subsequen.*|anytime|departure.*|immediateness|past|sudden.*|anywhere|depth.*|immortal.*|period.*|summer.*|apart|diagonal.*|in|perpetual.*|sunday.*|appear|disappear.*|inch.*|place.*|surfac.*|appeared|distan.*|inciden.*|placing.*|surround.*|appearing|down|increas.*|platform.*|swam|appears|downward.*|infinit.*|point|swim.*|approach.*|drift.*|initial.*|position.*|synch.*|april|drive|initiat.*|post|system.*|area.*|driven|inner.*|preced.*|tall|around|drives|inside|present|taller|arrival.*|driving|insides|presently|tallest|arrive|drop |instan.*|prior|tempora.*|arrived|drove|interior.*|proceed.*|term |arrives|due|internal.*|pull.*|terminat.*|arriving|during|internation.*|push.*|territor.*|at|earli.*|intersect.*|put|then|atop|early|interval.*|puts|thick.*|attend|east.*|into|putting|thin|attended|edge|january|quick.*|thinly|attending|edges|jog.*|ran|thinn.*|attends|edging|journey.*|receiv.*|threw|august|empt.*|july|recency|throw.*|autumn|enclos.*|jump.*|recent.*|thursday.*|away|encompass.*|june|recur.*|til|awhile|end|kilometer.*|remote.*|till|back|ended|km.*|remov.*|time.*|backward.*|ending|land|repeat.*|timing|before|ends|large.*|repetit.*|tinier|began|enorm.*|last.*|replace.*|tiniest|begin|enter|late|replacing|tiny|beginn.*|entered|lately|respectively|today.*|begins|entering|later|return.*|together|begun|enters|latest|rhythm.*|tomorrow.*|behavio.*|entrance.*|lead.*|ridden|tonight.*|below|environment.*|leave|ride|took|bend|era|leaves|rides|top|bending|etern.*|leaving|riding|toward.*|bends|eve|led|right|town|beneath|evening.*|ledge.*|rise.*|transact.*|bent|event|ledging|rising|transport.*|beside|eventually|left|road.*|travel.*|beyond|ever|level|rode|trip|biannu.*|everyday|levels|room|tripped|big|everywhere|littl.*|roomate.*|tripping|bigger|exit.*|local.*|roomed|trips|biggest|explor.*|long|roomie.*|tuesday.*|bimonth.*|exterior.*|longe.*|rooming|under|birth.*|fade.*|longitud.*|roommate.*|underneath|biweek.*|fading.*|low.*|rooms|undersid.*|born|fall|map|run|universe.*|both|fallen|mapped|runner.*|until|bottom.*|falling|mapping|running|up|breadth|falls|maps|runs|updat.*|break|far|march.*|rush.*|upon|brief.*|farther|mass|saturday.*|upper|bring|farthest|meantime|schedul.*|uppermost|bringing|fast|meanwhile|season.*|upstairs|brings|faster|meter.*|seconds|usual|brink|fastest|metre.*|section|usually|broad.*|february|mid|segment|vast.*|brought|fell|middl.*|send.*|verg.*|building|fill.*|mile.*|senior.*|vertical.*|busy|final |min|sent|visit.*|came|finally|minute.*|separat.*|walk|capacit.*|finish.*|modern.*|september.*|walked|car|first|moment.*|sequen.*|walking|carried|firstly|monday.*|set|walks|carrier.*|firsts|month.*|shake.*|wall|carries|fit|morning.*|shape.*|walling|carry |fled|motion.*|shaping.*|walls|carrying|flee.*|move|shook|way |catch|flew|moved|short.*|wednesday.*|caught|flies|movement.*|shut|week|cease.*|floor.*|mover.*|side|week'.*|ceasing|flow.*|moves|sides|weekend.*|ceiling.*|fly|moving|siding|weekl.*|center.*|flying|narrow.*|simultaneous.*|weeks|centre.*|follow|nation.*|sit|went|centur.*|followed|near|site|west.*|change|following|neared|sitting|when|changed|follows|nearer|sky.*|whenever|changes|followup.*|nearest|slid|where|changing|forever|nearing|slide|wheres|childhood|former.*|nears|slides|where's|christmas.*|forward.*|never|sliding|wherever|city|frequent|new|slow.*|while|climb.*|frequented|newer|small.*|whilst|clock.*|frequenting|newest|sometime |wide.*|close|frequently|newly|sometimes|width.*|closed|frequents|next|somewhere|winter.*|closely|Friday.*|night|soon|within|closer|front|nightly|soone.*|world|closes|full.*|nights|south.*|year |closest|further.*|noon.*|space|yearly|closing|futur.*|north.*|spaced|years|come|generation.*|november|spaces|yesterday.*|comes|giant.*|now|spaci.*|yet|coming|gigantic|nowhere|span|young.*|common|ginormous|occasional.*|spann.*|youth.*|connection.*|global.*|oclock.*|sped|constant |go|o'clock.*|speed.*)$"
p40
I34
tRp41
sS'You'
p42
g3
(S"^(thee|thine|thou|thoust|thy|ya|yall|y'all|ye|you|youd|you'd|youll|you'll|your |youre|you're|yours|youve|you've)$"
p43
I34
tRp44
sS'Incl'
p45
g3
(S'^(add|addit.*|along|and|around|both|came|close|come|each|inclu.*|inside|into|open|out|plus|we|with)$'
p46
I34
tRp47
sS'Prep'
p48
g3
(S'^(about|above|across|after|against|ahead|along|among.*|around|as|at|atop|away|before|behind|below|beneath|beside|besides|between|beyond|by|despite|down|during|except|for|from|in|inside|insides|into|near|of|off|on|onto|out|outside|over|plus|since|than|through.*|thru|til |till|to|toward.*|under|underneath|unless|until|unto|up|upon|wanna|with|within|without)$'
p49
I34
tRp50
sS'Relig'
p51
g3
(S"^(afterlife.*|moral|agnost.*|morality|alla|morals|allah.*|mormon.*|altar.*|mosque.*|amen|muhamm.*|amish|mujahid.*|angel|musl.*|angelic.*|nun|angels|nuns|baptis.*|orthodox.*|baptiz.*|pagan.*|belief.*|paradise|bible.*|passover|biblic.*|pastor.*|bishop.*|penance|bless.*|pentecost.*|buddh.*|pew|catholic.*|pews|chapel.*|piety|chaplain.*|pilgrim.*|christ|pious|christian.*|pope.*|christmas.*|prais.*|church.*|pray.*|clergy|preach.*|confess.*|presbyterian.*|convent|priest.*|convents|prophe.*|crucifi.*|protestant.*|crusade.*|psalm.*|demon.*|purgator.*|devil.*|puritan.*|divin.*|quran.*|doom.*|qur'an.*|episcopal.*|rabbi|evangel.*|rabbinical|faith.*|rabbis|fundamentalis.*|ramadan|gentile.*|religio.*|god'.*|rite|gospel.*|rites|heaven.*|ritual.*|hell|rosaries|hellish|rosary|hells|roshashan.*|hindu.*|sabbath.*|holie.*|sacred|holy|sacrific.*|hymn.*|saint.*|immoral.*|salvation|immortal.*|satan.*|islam.*|scriptur.*|jesuit.*|sect|jesus|sectarian|jew|sects|jewish.*|seminar.*|jews|shi'.*|jihad.*|shiite.*|juda.*|shrine.*|karma|sikh.*|kippur|sin|koran |sinn.*|kosher|sins|krishna.*|soul|krisna.*|souls|lord.*|spirit.*|lutheran.*|sunni|mecca|sunnis|meditat.*|temple.*|mercif.*|testament.*|mercy|theolog.*|methodis.*|torah|minister.*|vatican.*|ministr.*|veil.*|missionar.*|worship.*|mitzvah.*|yiddish|mohamm.*|zen|monast.*|zion.*|monk.*)$"
p52
I34
tRp53
sS'Bio'
p54
g3
(S"^(abdomen.*|disease.*|intox.*|scab.*|abortion.*|dish|itch.*|scalp|abs|dishes|iv|schizophren.*|ache.*|dizz.*|jaw.*|scrape.*|aching|doctor.*|jissom|screw.*|acne|dosage|jizz|seduc.*|addict.*|dose.*|joints|seizure.*|advil|dosing|kidney.*|sensation|aids|dr|kiss.*|sensations|alcohol.*|drank|kitchen.*|servings|alive|drink.*|knee.*|sex.*|allerg.*|drool.*|knuckle.*|shirt.*|amput.*|drows.*|leg|shit.*|anal|drs|legs.*|shoe.*|ankle.*|drug.*|lesbian.*|shoulder.*|anorexi.*|drunk.*|leuke.*|sick|antacid.*|dx|libid.*|sickday.*|antidepressant.*|dyke.*|life|sicker|anus.*|ear|lip|sickest|appendic.*|ears|lips.*|sickleave.*|appendix|eat|liquor.*|sickly|appeti.*|eaten|liver.*|sickness.*|arch|eating|living|sinus.*|arm|eats|love|skelet.*|armpit.*|egg.*|loved|skin|arms.*|elbow.*|lover.*|skinni.*|arous.*|emphysem.*|loves|skinny.*|arse|enema.*|lozenge.*|skull|arses|erectile|lump|sleep.*|arter.*|erection.*|lunch.*|slender.*|arthr.*|erotic.*|lung.*|slept|asleep|espresso.*|lust.*|slut.*|aspirin.*|estrogen.*|lymph.*|smok.*|ass|exercis.*|makeout.*|snack.*|asses|exhaust.*|mammogram|soda.*|asthma.*|eye.*|manicdep.*|sore.*|ate|face|meal.*|spat|bake.*|faces|medic.*|spinal|baking|facial.*|migrain.*|spine|bald|faint.*|milk.*|spit|bandage.*|farsighted|miscar.*|spits|bandaid|fat|mono|spitting|bar|fatigu.*|mouth.*|starve.*|bars|fats|mri |starving|beer.*|fatt.*|mucous.*|std.*|bellies|fed|muscle.*|stiff.*|belly|feed|muscular|stomach.*|bi|feeder.*|myopi.*|strept.*|bicep.*|feeding.*|naked|stroke.*|binge.*|feeds|nasal|stud|binging|feet|nause.*|stuffed|bipolar|fever.*|nearsighted|sugar.*|bladder.*|finger.*|neck|sunburn.*|bleed.*|flesh.*|nerve.*|supper.*|blind.*|flu|neural.*|surgeon.*|blood|food.*|neurolog.*|surger.*|bloody|foot|neuron.*|swallow.*|bodi.*|forearm.*|nipple.*|sweat.*|body.*|forehead.*|nose.*|swelling|boil.*|foreplay|nostril.*|swollen|bone|fries|nude.*|symptom.*|boner.*|fruit.*|nudi.*|syndrome.*|bones|fry.*|numb.*|syphili.*|bony|fuck|nurse.*|tast.*|boob.*|fucked.*|nutrition.*|tea|booz.*|fucker.*|obes.*|teeth.*|bowel.*|fuckin.*|OCD|tender.*|brain.*|fucks|optometr.*|tendon |bread|gay|orgasm.*|tendoni.*|breakfast.*|gays|orgies|tendons|breast.*|genital.*|orgy|testosterone.*|breath.*|gland.*|orthodon.*|therap.*|bronchi.*|glaucoma|orthoped.*|thermometer.*|brunch.*|glutton.*|ovar.*|thigh.*|bulimi.*|gobble.*|overate|thirst.*|burp.*|gobbling|overeat.*|throat.*|butt|gonorrhea|overweight|throb.*|butts|goosebump.*|pain|thyroid.*|butt's|grocer.*|pained|tingl.*|cafeteria.*|gulp.*|painf.*|tire.*|cancer.*|gums|paining|tiring|candie.*|gut|painl.*|tit|candy|guts|pains|tits|cardia.*|gynecolog.*|palm|titties|cardio.*|gyno.*|palms|titty|checkup.*|hair.*|pap|toe|cheek.*|hallucinat.*|paraly.*|toenail.*|chest.*|hamstring.*|passion.*|toes|chew.*|hand|pasta.*|tongue.*|chills|hands|patholog.*|tonsils|chiropract.*|hangover.*|pediatr.*|tooth.*|chlamydia|head|pee|tox.*|chok.*|headache.*|pelvi.*|tricep.*|cholester.*|heads|penis.*|tumo.*|chow.*|heal|perspir.*|twitch.*|chronic.*|healed|perver.*|tylenol|cigar.*|healer.*|pharmac.*|ulcer.*|clinic.*|healing|phobi.*|unhealth.*|clothes|heals|physical.*|urin.*|cock|health.*|physician.*|uter.*|cocks.*|heart|pill|vagina.*|codeine|heartburn.*|pills|vd|coffee.*|hearts|pimple.*|veget.*|coke.*|heel.*|piss.*|veggie.*|colon|helpings|pizza.*|vein.*|colono.*|hemor.*|pms|vertigo|colons|herpes|podiatr.*|viagra|coma.*|hiccup.*|poison.*|vicodin|condom|hip|poop.*|virgin.*|condoms|hips|porn.*|vitamin.*|congest.*|hiv|pregnan.*|vomit.*|constipat.*|ho|prescri.*|waist.*|contag.*|homo|prick.*|wake|cook.*|homos|prognos.*|wart|cornea.*|homosexual.*|prostat.*|warts|coronar.*|hormone.*|prostitu.*|wash|cough.*|hornie.*|prozac|water|cramp.*|horny|prude|weak.*|crap|hospital.*|prudes|wear|crotch|hug|prudish.*|weary|cuddl.*|hugg.*|pubic|weigh |cyst.*|hugs|puk.*|weighed|deaf.*|hump.*|pulse|weighing.*|decongest.*|hunger.*|puss|weighs|dentist.*|hungover|pussies|weight|derma.*|hungr.*|pussy.*|wheez.*|dessert.*|hyperten.*|queas.*|whiskey.*|detox.*|hypotherm.*|queer.*|whisky.*|diabet.*|ibuprofen|rape.*|whore.*|diagnos.*|ICU|raping|wine|diarr.*|ill|rapist.*|wines|dick|illness.*|rash.*|withdrawal|dicks|immun.*|rehab.*|womb.*|diet.*|incest.*|restau.*|wound.*|digest.*|indigestion|retina.*|wrist.*|dine |infect.*|rib|xanax|dined|inflam.*|ribs|xray.*|diner|ingest.*|ritalin|yawn.*|diners|injur.*|rx|zit|dines|insomnia.*|salad.*|zits|dining|insulin|saliv.*|zoloft|dinner.*|intestin.*|sandwich.*)$"
p55
I34
tRp56
sS'We'
p57
g3
(S"^(lets|let's|our|ours|ourselves|us|we|we'd|we'll|we're|weve|we've)$"
p58
I34
tRp59
sS'Cause'
p60
g3
(S"^(activat.*|affect|affected|affecting|affects|aggravat.*|allow.*|attribut.*|based|bases|basis|because|boss.*|caus.*|change|changed|changes|changing|compel.*|compliance|complie.*|comply.*|conclud.*|consequen.*|control.*|cos|coz|create.*|creati.*|cuz|deduc.*|depend|depended|depending|depends|effect.*|elicit.*|experiment|force.*|foundation.*|founded|founder.*|generate.*|generating|generator.*|hence|how|hows|how's|ignit.*|implica.*|implie.*|imply.*|inact.*|independ.*|induc.*|infer|inferr.*|infers|influenc.*|intend.*|intent.*|justif.*|launch.*|lead.*|led|made|make|maker.*|makes|making|manipul.*|misle.*|motiv.*|obedien.*|obey.*|origin|originat.*|origins|outcome.*|permit.*|pick |produc.*|provoc.*|provok.*|purpose.*|rational.*|react.*|reason.*|response|result.*|root.*|since|solution.*|solve|solved|solves|solving|source.*|stimul.*|therefor.*|thus|trigger.*|use|used|uses|using|why)$"
p61
I34
tRp62
sS'Leisure'
p63
g3
(S'^(actor.*|martini.*|actress.*|meditat.*|aerobic.*|minesweeper|amus.*|motel.*|apartment.*|movie.*|art|mtv.*|artist.*|museum.*|arts|musi.*|athletic.*|nap|ball|naps|ballet.*|netflix|band|nintendo.*|bands|novel|bar|novels|bars|opera.*|baseball.*|orchestra|basketball.*|parks|bath.*|partie.*|beach.*|party.*|beer.*|pitcher.*|bicyc.*|play|bike.*|played|birdie.*|playful.*|blackjack|playing|blockbuster.*|plays|blog.*|playstation.*|book.*|poetry|caf\xc3\xa9.*|poker|camping|pool.*|cards|pretend.*|casino.*|pub|casual|pubs|cd.*|radio.*|celebrat.*|rap|celebrit.*|read |channel.*|reading|chat.*|recording.*|checkers|recreation.*|chess|reggae|chillin.*|relax.*|choir.*|restau.*|chorus|resting|cinema.*|rock|club.*|rocks|coach.*|roller.*|cocktail.*|rowing|coffee.*|rugby.*|comed.*|rum|comic.*|runner.*|concert.*|running|cook.*|salsa|cruis.*|sang|danc.*|scrabble|decorat.*|scrapbook.*|diaries|sculpt.*|diary|shop|dj.*|shopaholic.*|drama|shopp.*|dream.*|shops|drink.*|show|drum|shows|drumm.*|sing|drums|singing|drunk.*|sings|dvd.*|skat.*|easy.*|ski|entertain.*|skied|exercis.*|skier.*|families.*|skiing|family|skis|fantasi.*|soaps|fantasy|soccer.*|film.*|solitaire|fishing|song.*|fitness|spa|flatscreen.*|spas|football.*|sport.*|frisbee.*|standup|game.*|stereo|gaming|stereos|garage.*|stoned|garden.*|sunbath.*|golf.*|swim.*|guitar.*|symphon.*|gym.*|tanning|hangin.*|team.*|hangout.*|techno|hik.*|television.*|hiphop|tennis.*|hobb.*|tequila|hockey.*|theat.*|holiday.*|ticket.*|horseback|tivo.*|hotel.*|toy.*|hunting|travel.*|inn|triathl.*|inns|tv.*|intramural.*|unwind.*|ipod.*|vacation.*|jazz.*|vcr.*|jog.*|video.*|joke.*|vodka.*|joking|volleyb.*|karaoke|weekend.*|keg|weightlift.*|kegger|weights|keggers|whiskey.*|kegs|whisky.*|laidback|wine|liquor.*|wines|magazine.*|workout.*|mall|xbox.*|malls|yard|marathon.*|yoga|margarita.*)$'
p64
I34
tRp65
sS'AuxVb'
p66
g3
(S"^(aint|ain't|am|are|arent|aren't|be|became|become|becomes|becoming|been|being|can|cannot|cant|can't|could|couldnt|couldn't|couldve|could've|did|didnt|didn't|do|does|doesnt|doesn't|doing|done|dont|don't|had|hadnt|hadn't|has|hasnt|hasn't|have|havent|haven't|having|hed|he'd|heres|here's|hes|he's|Id|I'd|I'll|Im|I'm|is|isnt|isn't|itd|it'd|itll|it'll|it's|ive|I've|let |may|might|mightve|might've|must|mustnt|must'nt|mustn't|mustve|must've|ought|oughta|oughtnt|ought'nt|oughtn't|oughtve|ought've|shall|shant|shan't|she'd|she'll|shes|she's|should|shouldnt|should'nt|shouldn't|shouldve|should've|thatd|that'd|thatll|that'll|thats|that's|theres|there's|theyd|they'd|theyll|they'll|theyre|they're|theyve|they've|was|wasnt|wasn't|we'd|we'll|were|weren't|weve|we've|whats|what's|wheres|where's|whod|who'd|wholl|who'll|will|wont|won't|would|wouldnt|wouldn't|wouldve|would've|youd|you'd|youll|you'll|youre|you're|youve|you've)$"
p67
I34
tRp68
sS'Health'
p69
g3
(S'^(abortion.*|itch.*|ache.*|iv|aching|leuke.*|acne|life|addict.*|living|advil|lozenge.*|aids|lump|alcohol.*|lymph.*|alive|mammogram|allerg.*|manicdep.*|amput.*|medic.*|anorexi.*|migrain.*|antacid.*|miscar.*|antidepressant.*|mono|appendic.*|mri |arthr.*|myopi.*|aspirin.*|nause.*|asthma.*|nearsighted|bandage.*|neurolog.*|bandaid|numb.*|binge.*|nurse.*|binging|nutrition.*|bipolar|obes.*|bleed.*|OCD|blind.*|optometr.*|bronchi.*|orthodon.*|bulimi.*|orthoped.*|burp.*|overweight|cancer.*|pain|cardia.*|pained|cardio.*|painf.*|checkup.*|paining|chills|painl.*|chiropract.*|pains|chlamydia|pap|chok.*|paraly.*|cholester.*|patholog.*|chronic.*|pediatr.*|clinic.*|pharmac.*|codeine|phobi.*|colono.*|physical.*|coma.*|physician.*|congest.*|pill|constipat.*|pills|contag.*|pimple.*|coronar.*|pms|cough.*|podiatr.*|cramp.*|poison.*|cyst.*|pregnan.*|deaf.*|prescri.*|decongest.*|prognos.*|dentist.*|prozac|derma.*|puk.*|detox.*|puss|diabet.*|queas.*|diagnos.*|rehab.*|diarr.*|ritalin|digest.*|rx|disease.*|scab.*|dizz.*|schizophren.*|doctor.*|scrape.*|dosage|seizure.*|dose.*|sick|dosing|sickday.*|dr|sicker|drows.*|sickest|drs|sickleave.*|drug.*|sickly|dx|sickness.*|emphysem.*|sinus.*|enema.*|sore.*|estrogen.*|std.*|exercis.*|stiff.*|exhaust.*|strept.*|faint.*|stroke.*|farsighted|sunburn.*|fat|surgeon.*|fatigu.*|surger.*|fats|swelling|fatt.*|swollen|fever.*|symptom.*|flu|syndrome.*|gland.*|syphili.*|glaucoma|tender.*|gynecolog.*.*|tendoni.*|gyno.*|testosterone.*|hallucinat.*|therap.*|hangover.*|thermometer.*|headache.*|throb.*|heal|thyroid.*|healed|tingl.*|healer.*|tire.*|healing|tiring|heals|tox.*|health.*|tumo.*|heartburn.*|twitch.*|hemor.*|tylenol|herpes|ulcer.*|hiccup.*|unhealth.*|hiv|vertigo|hormone.*|viagra|hospital.*|vicodin|hungover|vitamin.*|hyperten.*|vomit.*|hypotherm.*|wart|ibuprofen|warts|ICU|wash|ill|weak.*|illness.*|weary|immun.*|wheez.*|indigestion|withdrawal|infect.*|wound.*|inflam.*|xanax|ingest.*|xray.*|injur.*|yawn.*|insomnia.*|zit|insulin|zits|intox.*|zoloft)$'
p70
I34
tRp71
sS'Hear'
p72
g3
(S'^(audibl.*|audio.*|boom.*|choir.*|concert.*|deaf.*|ear|ears|harmon.*|hear|heard|hearing|hears|hush.*|inaudibl.*|listen|listened|listener.*|listening|listens|loud.*|musi.*|noise|noises|noisy|quiet.*|rang|ring|ringing|rings|said|sang|say.*|scream.*|shout.*|silen.*|song.*|sound.*|speak|speaker.*|speaking|speaks|speech.*|spoke.*|thunder.*|voic.*|whisper.*|yell|yelled|yelling|yells)$'
p73
I34
tRp74
sS'They'
p75
g3
(S"^(their.*|them|themselves|they|theyd|they'd|theyll|they'll|theyve|they've)$"
p76
I34
tRp77
sS'Posemo'
p78
g3
(S'^(accept|freed.*|partie.*|accepta.*|freeing|party.*|accepted|freely|passion.*|accepting|freeness|peace.*|accepts|freer|perfect.*|active.*|frees.*|play|admir.*|friend.*|played|ador.*|fun|playful.*|advantag.*|funn.*|playing|adventur.*|genero.*|plays|affection.*|gentle|pleasant.*|agree|gentler|please.*|agreeab.*|gentlest|pleasing|agreed|gently|pleasur.*|agreeing|giggl.*|popular.*|agreement.*|giver.*|positiv.*|agrees|giving|prais.*|alright.*|glad|precious.*|amaz.*|gladly|prettie.*|amor.*|glamor.*|pretty|amus.*|glamour.*|pride|aok|glori.*|privileg.*|appreciat.*|glory|prize.*|assur.*|good|profit.*|attachment.*|goodness|promis.*|attract.*|gorgeous.*|proud.*|award.*|grace|radian.*|awesome|graced|readiness|beaut.*|graceful.*|ready|beloved|graces|reassur.*|benefic.*|graci.*|relax.*|benefit|grand|relief|benefits|grande.*|reliev.*|benefitt.*|gratef.*|resolv.*|benevolen.*|grati.*|respect |benign.*|great|revigor.*|best|grin|reward.*|better|grinn.*|rich.*|bless.*|grins|ROFL|bold.*|ha|romanc.*|bonus.*|haha.*|romantic.*|brave.*|handsom.*|safe.*|bright.*|happi.*|satisf.*|brillian.*|happy|save|calm.*|harmless.*|scrumptious.*|care|harmon.*|secur.*|cared|heartfelt|sentimental.*|carefree|heartwarm.*|share|careful.*|heaven.*|shared|cares|heh.*|shares|caring|helper.*|sharing|casual|helpful.*|silli.*|casually|helping|silly|certain.*|helps|sincer.*|challeng.*|hero.*|smart.*|champ.*|hilarious|smil.*|charit.*|hoho.*|sociab.*|charm.*|honest.*|soulmate.*|cheer.*|honor.*|special|cherish.*|honour.*|splend.*|chuckl.*|hope|strength.*|clever.*|hoped|strong.*|comed.*|hopeful|succeed.*|comfort.*|hopefully|success.*|commitment.*|hopefulness|sunnier|compassion.*|hopes|sunniest|compliment.*|hoping|sunny|confidence|hug |sunshin.*|confident|hugg.*|super|confidently|hugs|superior.*|considerate|humor.*|support|contented.*|humour.*|supported|contentment|hurra.*|supporter.*|convinc.*|ideal.*|supporting|cool|importan.*|supportive.*|courag.*|impress.*|supports|create.*|improve.*|suprem.*|creati.*|improving|sure.*|credit.*|incentive.*|surpris.*|cute.*|innocen.*|sweet|cutie.*|inspir.*|sweetheart.*|daring|intell.*|sweetie.*|darlin.*|interest.*|sweetly|dear.*|invigor.*|sweetness.*|definite|joke.*|sweets|definitely|joking|talent.*|delectabl.*|joll.*|tehe|delicate.*|joy.*|tender.*|delicious.*|keen.*|terrific.*|deligh.*|kidding|thank|determina.*|kind|thanked|determined|kindly|thankf.*|devot.*|kindn.*|thanks|digni.*|kiss.*|thoughtful.*|divin.*|laidback|thrill.*|dynam.*|laugh.*|toleran.*|eager.*|libert.*|tranquil.*|ease.*|like|treasur.*|easie.*|likeab.*|treat|easily|liked|triumph.*|easiness|likes|true |easing|liking|trueness|easy.*|livel.*|truer|ecsta.*|LMAO|truest|efficien.*|LOL|truly|elegan.*|love|trust.*|encourag.*|loved|truth.*|energ.*|lovely|useful.*|engag.*|lover.*|valuabl.*|enjoy.*|loves|value|entertain.*|loving.*|valued|enthus.*|loyal.*|values|excel.*|luck|valuing|excit.*|lucked|vigor.*|fab|lucki.*|vigour.*|fabulous.*|lucks|virtue.*|faith.*|lucky|virtuo.*|fantastic.*|madly|vital.*|favor.*|magnific.*|warm.*|favour.*|merit.*|wealth.*|fearless.*|merr.*|welcom.*|festiv.*|neat.*|well.*|fiesta.*|nice.*|win|fine|nurtur.*|winn.*|flatter.*|ok|wins|flawless.*|okay|wisdom|flexib.*|okays|wise.*|flirt.*|oks|won|fond|openminded.*|wonderf.*|fondly|openness|worship.*|fondness|opportun.*|worthwhile|forgave|optimal.*|wow.*|forgiv.*|optimi.*|yay|free|original|yays|free.*|outgoing|freeb.*|painl.*|palatabl.*|paradise)$'
p79
I34
tRp80
sS'Affect'
p81
g3
(S'^(abandon.*|damn.*|fume.*|kindn.*|privileg.*|supporting|abuse.*|danger.*|fuming|kiss.*|prize.*|supportive.*|abusi.*|daring|fun|laidback|problem.*|supports|accept|darlin.*|funn.*|lame.*|profit.*|suprem.*|accepta.*|daze.*|furious.*|laugh.*|promis.*|sure.*|accepted|dear.*|fury|lazie.*|protest|surpris.*|accepting|decay.*|geek.*|lazy|protested|suspicio.*|accepts|defeat.*|genero.*|liabilit.*|protesting|sweet|ache.*|defect.*|gentle|liar.*|proud.*|sweetheart.*|aching|defenc.*|gentler|libert.*|puk.*|sweetie.*|active.*|defens.*|gentlest|lied|punish.*|sweetly|admir.*|definite|gently|lies|radian.*|sweetness.*|ador.*|definitely|giggl.*|like|rage.*|sweets|advantag.*|degrad.*|giver.*|likeab.*|raging|talent.*|adventur.*|delectabl.*|giving|liked|rancid.*|tantrum.*|advers.*|delicate.*|glad|likes|rape.*|tears|affection.*|delicious.*|gladly|liking|raping|teas.*|afraid|deligh.*|glamor.*|livel.*|rapist.*|tehe|aggravat.*|depress.*|glamour.*|LMAO|readiness|temper|aggress.*|depriv.*|gloom.*|LOL|ready|tempers|agitat.*|despair.*|glori.*|lone.*|reassur.*|tender.*|agoniz.*|desperat.*|glory|longing.*|rebel.*|tense.*|agony|despis.*|goddam.*|lose|reek.*|tensing|agree|destroy.*|good|loser.*|regret.*|tension.*|agreeab.*|destruct.*|goodness|loses|reject.*|terribl.*|agreed|determina.*|gorgeous.*|losing|relax.*|terrific.*|agreeing|determined|gossip.*|loss.*|relief|terrified|agreement.*|devastat.*|grace|lost|reliev.*|terrifies|agrees|devil.*|graced|lous.*|reluctan.*|terrify |alarm.*|devot.*|graceful.*|love|remorse.*|terrifying|alone|difficult.*|graces|loved|repress.*|terror.*|alright.*|digni.*|graci.*|lovely|resent.*|thank|amaz.*|disadvantage.*|grand|lover.*|resign.*|thanked|amor.*|disagree.*|grande.*|loves|resolv.*|thankf.*|amus.*|disappoint.*|gratef.*|loving.*|respect |thanks|anger.*|disaster.*|grati.*|low.*|restless.*|thief|angr.*|discomfort.*|grave.*|loyal.*|revenge.*|thieve.*|anguish.*|discourag.*|great|luck|revigor.*|thoughtful.*|annoy.*|disgust.*|greed.*|lucked|reward.*|threat.*|antagoni.*|dishearten.*|grief|lucki.*|rich.*|thrill.*|anxi.*|disillusion.*|griev.*|luckless.*|ridicul.*|ticked|aok|dislike|grim.*|lucks|rigid.*|timid.*|apath.*|disliked|grin|lucky|risk.*|toleran.*|appall.*|dislikes|grinn.*|ludicrous.*|ROFL|tortur.*|appreciat.*|disliking|grins|lying|romanc.*|tough.*|apprehens.*|dismay.*|gross.*|mad|romantic.*|traged.*|argh.*|dissatisf.*|grouch.*|maddening|rotten|tragic.* |argu.*|distract.*|grr.*|madder|rude.*|tranquil.*|arrogan.*|distraught|guilt.*|maddest|ruin.*|trauma.*|asham.*|distress.*|ha|madly|sad|treasur.*|assault.*|distrust.*|haha.*|magnific.*|sadde.*|treat|asshole.*|disturb.*|handsom.*|maniac.*|sadly|trembl.*|assur.*|divin.*|happi.*|masochis.*|sadness|trick.*|attachment.*|domina.*|happy|melanchol.*|safe.*|trite|attack.*|doom.*|harass.*|merit.*|sarcas.*|triumph.*|attract.*|dork.*|harm|merr.*|satisf.*|trivi.*|aversi.*|doubt.*|harmed|mess|savage.*|troubl.*|avoid.*|dread.*|harmful.*|messy|save|true |award.*|dull.*|harming|miser.*|scare.*|trueness|awesome|dumb.*|harmless.*|miss|scaring|truer|awful|dump.*|harmon.*|missed|scary|truest|awkward.*|dwell.*|harms|misses|sceptic.*|truly|bad|dynam.*|hate|missing|scream.*|trust.*|bashful.*|eager.*|hated|mistak.*|screw.*|truth.*|bastard.*|ease.*|hateful.*|mock|secur.*|turmoil|battl.*|easie.*|hater.*|mocked|selfish.*|ugh|beaten|easily|hates|mocker.*|sentimental.*|ugl.*|beaut.*|easiness|hating|mocking|serious|unattractive|beloved|easing|hatred|mocks|seriously|uncertain.*|benefic.*|easy.*|hazy|molest.*|seriousness|uncomfortabl.*|benefit|ecsta.*|heartbreak.*|mooch.*|severe.*|uncontrol.*|benefits|efficien.*|heartbroke.*|mood|shake.*|uneas.*|benefitt.*|egotis.*|heartfelt|moodi.*|shaki.*|unfortunate.*|benevolen.*|elegan.*|heartless.*|moods|shaky|unfriendly|benign.*|embarrass.*|heartwarm.*|moody|shame.*|ungrateful.*|best|emotion|heaven.*|moron.*|share|unhapp.*|better|emotion|heh.*|mourn.*|shared|unimportant|bitch.*|emotional|hell|murder.*|shares|unimpress.*|bitter.*|empt.*|hellish|nag.*|sharing|unkind|blam.*|encourag.*|helper.*|nast.*|shit.*|unlov.*|bless.*|enemie.*|helpful.*|neat.*|shock.*|unpleasant|bold.*|enemy.*|helping|needy|shook|unprotected|bonus.*|energ.*|helpless.*|neglect.*|shy.*|unsavo.*|bore.*|engag.*|helps|nerd.*|sicken.*|unsuccessful.*|boring|enjoy.*|hero.*|nervous.*|sigh|unsure.*|bother.*|enrag.*|hesita.*|neurotic.*|sighed|unwelcom.*|brave.*|entertain.*|hilarious|nice.*|sighing|upset.*|bright.*|enthus.*|hoho.*|numb.*|sighs|uptight.*|brillian.*|envie.*|homesick.*|nurtur.*|silli.*|useful.*|broke|envious|honest.*|obnoxious.*|silly|useless.* |brutal.*|envy.*|honor.*|obsess.*|sin|vain|burden.*|evil.*|honour.*|offence.*|sincer.*|valuabl.*|calm.*|excel.*|hope|offend.*|sinister|value|care|excit.*|hoped|offens.*|sins|valued|cared|excruciat.*|hopeful|ok|skeptic.*|values|carefree|exhaust.*|hopefully|okay|slut.*|valuing|careful.*|fab|hopefulness|okays|smart.*|vanity|careless.*|fabulous.*|hopeless.*|oks|smil.*|vicious.*|cares|fail.*|hopes|openminded.*|smother.*|victim.*|caring|faith.*|hoping|openness|smug.*|vigor.*|casual|fake|horr.*|opportun.*|snob.*|vigour.*|casually|fantastic.*|hostil.*|optimal.*|sob|vile|certain.*|fatal.*|hug|optimi.*|sobbed|villain.*|challeng.*|fatigu.*|hugg.*|original|sobbing|violat.*|champ.*|fault.*|hugs|outgoing|sobs|violent.*|charit.*|favor.*|humiliat.*|outrag.*|sociab.*|virtue.*|charm.*|favour.*|humor.*|overwhelm.*|solemn.*|virtuo.*|cheat.*|fear|humour.*|pain|sorrow.*|vital.*|cheer.*|feared|hurra.*|pained|sorry|vulnerab.*|cherish.*|fearful.*|hurt.*|painf.*|soulmate.*|vulture.*|chuckl.*|fearing|ideal.*|paining|special|war|clever.*|fearless.*|idiot|painl.*|spite.*|warfare.*|comed.*|fears|ignor.*|pains|splend.*|warm.*|comfort.*|feroc.*|immoral.*|palatabl.*|stammer.*|warred|commitment.*|festiv.*|impatien.*|panic.*|stank|warring|compassion.*|feud.*|impersonal|paradise|startl.*|wars|complain.*|fiery|impolite.*|paranoi.*|steal.*|weak.*|compliment.*|fiesta.*|importan.*|partie.*|stench|wealth.*|concerned|fight.*|impress.*|party.*|stink.*|weapon.*|confidence|fine|improve.*|passion.*|strain.*|weep.*|confident|fired|improving|pathetic.*|strange|weird.*|confidently|flatter.*|inadequa.*|peace.*|strength.*|welcom.*|confront.*|flawless.*|incentive.*|peculiar.*|stress.*|well.*|confus.*|flexib.*|indecis.*|perfect.*|strong.*|wept|considerate|flirt.*|ineffect.*|personal|struggl.*|whine.*|contempt.*|flunk.*|inferior.* |perver.*|stubborn.*|whining|contented.*|foe.*|inhib.*|pessimis.*|stunk|whore.*|contentment|fond|innocen.*|petrif.*|stunned|wicked.*|contradic.*|fondly|insecur.*|pettie.*|stuns|willing|convinc.*|fondness|insincer.*|petty.*|stupid.*|wimp.*|cool|fool.*|inspir.*|phobi.*|stutter.*|win|courag.*|forbid.*|insult.*|piss.*|submissive.*|winn.*|crap|forgave|intell.*|piti.*|succeed.*|wins|crappy|forgiv.*|interest.*|pity.* |success.*|wisdom|craz.*|fought|interrup.*|play|suck|wise.*|create.*|frantic.*|intimidat.*|played|sucked|witch|creati.*|freak.*|invigor.*|playful.*|sucker.*|woe.*|credit.*|free|irrational.*|playing|sucks|won|cried|freeb.*|irrita.*|plays|sucky|wonderf.*|cries|freed.*|isolat.*|pleasant.*|suffer|worr.*|critical|freeing|jaded|please.*|suffered|worse.*|critici.*|freely|jealous.*|pleasing|sufferer.*|worship.*|crude.*|freeness|jerk|pleasur.*|suffering|worst|cruel.*|freer|jerked|poison.*|suffers|worthless.* |crushed|frees.*|jerks|popular.*|sunnier|worthwhile|cry|friend.*|joke.*|positiv.*|sunniest|wow.*|crying|fright.*|joking|prais.*|sunny|wrong.*|cunt.*|frustrat.*|joll.*|precious.*|sunshin.*|yay|cut|fuck|joy.*|prejudic.*|super|yays|cute.*|fucked.*|keen.*|pressur.*|superior.*|yearn.*|cutie.*|fucker.*|kidding|prettie.*|support|cynic|fuckin.*|kill.*|pretty|supported|damag.*|fucks|kind|prick.*|supporter.*|kindly|pride)$'
p82
I34
tRp83
sS'Excl'
p84
g3
(S'^(but|either|except|exclu.*|if|just|not|or|rather|really|something.*|sometime|unless|versus|vs|whether|without)$'
p85
I34
tRp86
sS'Friends'
p87
g3
(S"^(acquainta.*|amigo.*|bf.*|boyf.*|bud|buddies.*|buddy.*|colleague.*|companion|companions|comrad.*|exbf.*|exboyfriend.*|exgf.*|exgirl.*|fellow.*|fiance.*|friend.*|gf.*|girlfriend.*|guest.*|honey|lover.*|mate|mates|mate's|neighbor.*|neighbour.*|pal|pals|partner.*|roomate.*|roomie.*|roommate.*|soulmate.*|sweetheart.*|sweetie.*)$"
p88
I34
tRp89
sS'Past'
p90
g3
(S"^(accepted|admitted|affected|appeared|arrived|asked|ate|became|been|began|believed|bought|brought|called|came|cared|carried|caught|changed|couldve|could've|cried|depended|described|did|didnt|didn't|died|disliked|done|drank|driven|drove|eaten|emailed|ended|entered|explained|fed|felt|fled|flew|followed|forgot.*|fought|found|fucked.*|gave|given|gone|got|gotten|guessed|had|hadnt|hadn't|happened|hated|heard|held|helped|hoped|kept|knew|lied|liked|listened|lived|looked|lost|loved|made|meant|met|missed|moved|mustve|must've|needed|owed|paid|played|ran|said|sat|saw|seemed|seen|sensed|sent|shared|shouldve|should've|showed|slept|sold|spent|spoke.*|started|stayed|stood|stopped|stuck|studied|sucked|suffered|supported|supposed|taken|talked|taught|tended|thanked|thought|threw|told|took|tried|turned|understood|used|viewed|waited|walked|wanted|was|wasnt|wasn't|went|were|weren't|weve|we've|wished|woke|woken|won|wondered|wore|worked|worn|wouldve|would've|written|wrote)$"
p91
I34
tRp92
sS'Present'
p93
g3
(S"^(admit|isn't|admits|it's|aint|ive|ain't|I've|am|keep|appear|keeps|appears|know|are|knows|arent|lets|aren't|let's|arrive|listen|arrives|listens|ask|look|asks|looks|become|love|becomes|loves|begin|make|begins|makes|believe|mean|believes|means|bring|miss|brings|misses|can|need|cannot|needs|cant|owe|can't|owes|care|see|cares|seem|carries|seems|carry|sees|come|shes|comes|she's|depends|start|describe|starts|describes|suck|dies|sucks|dislike|support|dislikes|supports|do|suppose|does|supposes|doesnt|take|doesn't|takes|dont|taking|don't|tend|explain|tends|explains|thank|feel|thanks|feels|thats|follow|that's|follows|theres|fuck|there's|fucks|theyre|get|they're|gets|theyve|give|they've|gives|think|go|thinks|goes|tries|guess|try|guesses|turn|happen|turns|happens|understand|has|understands|hasnt|use|hasn't|uses|hate|using|hates|wait|have|waits|havent|want|haven't|wants|hear|we're|hears|whats|helps|what's|heres|wheres|here's|where's|hes|whos|he's|who's|hope|wish|hopes|wishes|hows|wonder|how's|youre|Im|you're|i'm|youve|is|you've|isnt)$"
p94
I34
tRp95
sS'Body'
p96
g3
(S'^(abdomen.*|knuckle.*|abs|leg|anal|legs.*|ankle.*|lip|anus.*|lips.*|appendix|liver.*|arch|lung.*|arm|mouth.*|armpit.*|mucous.*|arms.*|muscle.*|arous.*|muscular|arse|naked|arses|nasal|arter.*|neck|asleep|nerve.*|ass|neural.*|asses|neuron.*|bald|nipple.*|bellies|nose.*|belly|nostril.*|bicep.*|nude.*|bladder.*|nudi.*|blood|orgasm.*|bloody|ovar.*|bodi.*|palm|body.*|palms|bone|pee|bones|pelvi.*|bony|penis.*|boob.*|perspir.*|bowel.*|piss.*|brain.*|poop.*|breast.*|prick.*|breath.*|prostat.*|butt|pulse|butts|pussies|cheek.*|pussy.*|chest.*|rash.*|clothes|retina.*|cock|rib|cocks.*|ribs|colon|saliv.*|colons|scalp|cornea.*|sensation|crap|sensations|crotch|shirt.*|dick|shit.*|dicks|shoe.*|drool.*|shoulder.*|ear|skelet.*|ears|skin|elbow.*|skinni.*|erectile|skull|erection.*|sleep.*|eye.*|slender.*|face|slept|faces|spat|facial.*|spinal|fat|spine|fatt.*|spit|feet|spits|finger.*|spitting|flesh.*|stomach.*|foot|sweat.*|forearm.*|teeth.*|forehead.*|tendon |genital.*|tendons|goosebump.*|thigh.*|gums|thirst.*|gut|throat.*|guts|tit|hair.*|tits|hamstring.*|titties|hand|titty|hands|toe|head|toenail.*|heads|toes|heart|tongue.*|hearts|tonsils|heel.*|tooth.*|hip|tricep.*|hips|urin.*|hornie.*|uter.*|horny|vagina.*|intestin.*|vein.*|itch.*|waist.*|jaw.*|wake|joints|wear|kidney.*|womb.*|knee.*|wrist.*)$'
p97
I34
tRp98
sS'I'
g3
(S"^(i|Id|I'd|I'll|Im|I'm|ive|I've|me|mine|my|myself)$"
p99
I34
tRp100
sS'Work'
p101
g3
(S'^(absent.*|feedback|profs|academ.*|finaliz.*|program.*|accomplish.*|finals|project |achiev.*|financ.*|projector.*|administrat.*|fired|projects|advertising|firing|prom|advis.*|franchis.*|promot.*|agent|frat|psych|agents|fratern.*|psychol.*|ambiti.*|freshm.*|publish|applicant.*|gmat|qualifi.*|applicat.*|goal.*|quiz.*|apprentic.*|gov|read |assign.*|govern.*|recruit.*|assistan.*|gpa|register.*|associat.*|grad|registra.*|auditorium.*|grade.*|report.*|award.*|grading|requir.*|beaten|graduat.*|research.*|benefits|gre|resource|biolog.*|hardwork.*|resources|biz|headhunter.*|resourcing|blackboard.*|highschool.*|responsib.*|bldg.*|hire.*|resume|book.*|hiring|retire.*|boss.*|homework.*|retiring|broker.*|inc|review.*|bureau.*|income.*|rhetor.*|burnout.*|incorp.*|salar.*|business.*|industr.*|scholar|busy|instruct.*|scholaring|cafeteria.*|interview.*|scholarly|calculus|inventory|scholars|campus.*|jd|scholarship.*|career.*|job.*|scholastic.*|ceo.*|junior.*|school.*|certif.*|keyboard.*|scien.*|chairm.*|kinderg.*|secretar.*|chalk|labor.*|sector.*|challeng.*|labour.*|semester.*|champ.*|laidoff|senior.*|class|laptop.*|servic.*|classes|lawyer.* |session.*|classmate.*|layoff.*|sickday.*|classroom.*|lead.*|sickleave.*|collab.*|learn.*|sophom.*|colleague.*|lectur.*|sororit.*|colleg.*|legal.*|staff.*|com|librar.*|stapl.*|commerc.*|lsat|stipend.*|commute.*|ltd|stock|commuting|mailroom.*|stocked|companies|majoring|stocker|company|majors|stocks|comput.*|manag.*|student.*|conferenc.*|manufact.*|studied|conglom.*|market.*|studies|consult.*|masters|studious|consumer.*|math.*|study.*|contracts|mcat|succeed.*|corp |mda|success.*|corporat.*|meeting.*|supervis.*|corps|memo|syllabus.*|counc.*|memos|taught|couns.*|menial|tax|course.*|mentor.*|taxa.*|coworker.*|merger.*|taxed|credential.*|mfg|taxes|credit.*|mfr|taxing|cubicle.*|mgmt|teach.*|curricul.*|mgr|team.*|customer.*|midterm.*|tenure.*|cv.*|motiv.*|test|deadline.*|negotiat.*|tested|dean.*|ngo|testing|delegat.*|nonprofit.*|tests|demote.*|occupa.*|textbook.*|department.*|office.*|theses|dept|org|thesis|desk.*|organiz.*|toefl|diplom.*|outlin.*|trade.*|director.*|outsourc.*|trading|dissertat.*|overpaid|transcript.*|dividend.*|overtime|transfer.*|doctor.*|overworked|tutor.*|dorm.*|paper.*|type.*|dotcom|pay.*|typing|downsiz.*|pc.*|undergrad.*|dropout.*|pen|underpaid|duti.*|pencil.*|unemploy.*|duty|pens |universit.*|earn.*|pension.*|unproduc.*|econ.*|phd.*|upperclass.*|edit.*|photocop.*|varsit.*|educat.*|pledg.*|vita|elementary|police|vitas|employ.*|policy|vocation.*|esl|political|vp.*|exam|politics|wage|exams|practice|wages|excel.*|prereq.*|warehous.*|executive.*|presentation.*|welfare|expel.*|presiden.*|work |expulsion.*|procrastin.*|workabl.*|factories|produc.*|worked|factory|prof|worker.*|facult.*|profession.*|working.*|fail.*|professor.*|works|fax.*|profit.*|xerox.*)$'
p102
I34
tRp103
sS'Tentat'
p104
g3
(S"^(allot|almost|alot|ambigu.*|any|anybod.*|anyhow|anyone.*|anything|anytime|anywhere|apparently|appear|appeared|appearing|appears|approximat.*|arbitrar.*|assum.*|barely|bet|bets|betting|blur.*|borderline.*|chance|confus.*|contingen.*|depend|depended|depending|depends|disorient.*|doubt.*|dubious.*|dunno|fairly|fuzz.*|generally|guess|guessed|guesses|guessing|halfass.*|hardly|hazie.*|hazy|hesita.*|hope|hoped|hopeful|hopefully|hopefulness|hopes|hoping|hypothes.*|hypothetic.*|if|incomplet.*|indecis.*|indefinit.*|indetermin.*|indirect.*|kind (of)|kinda|kindof|likel.*|lot|lotof|lots |lotsa|lotta|luck|lucked|lucki.*|luckless.*|lucks|lucky|mainly|marginal.*|may|maybe|might|mightve|might've|most|mostly|myster.*|nearly|obscur.*|occasional.*|often|opinion|option|or|overall|partly|perhaps|possib.*|practically|pretty|probable|probablistic.*|probably|puzzl.*|question.*|quite|random.*|seem|seemed|seeming.*|seems|shaki.*|shaky|some|somebod.*|somehow|someone.*|something.*|sometime|sometimes|somewhat|sort|sorta|sortof|sorts|sortsa|spose|suppose|supposed|supposes|supposing|supposition.*|tempora.*|tentativ.*|theor.*|typically|uncertain.*|unclear.*|undecided.*|undetermin.*|unknow.*|unlikel.*|unluck.*|unresolv.*|unsettl.*|unsure.*|usually|vague.*|variab.*|varies|vary|wonder|wondered|wondering|wonders)$"
p105
I34
tRp106
sS'Ingest'
p107
g3
(S'^(alcohol.*|anorexi.*|appeti.*|ate|bake.*|baking|bar|bars|beer.*|binge.*|binging|boil.*|booz.*|bread|breakfast.*|brunch.*|bulimi.*|cafeteria.*|candie.*|candy|chew.*|chow.*|cigar.*|cocktail.*|coffee.*|coke.*|cook.*|dessert.*|diet.*|digest.*|dine|dined|diner|diners|dines|dining|dinner.*|dish|dishes|drank|drink.*|drunk.*|eat|eaten|eating|eats|egg.*|espresso.*|fat|fats|fatt.*|fed|feed|feeder.*|feeding.*|feeds|food.*|fries|fruit.*|fry.*|glutton.*|gobble.*|gobbling|grocer.*|gulp.*|helpings|hunger.*|hungr.*|ingest.*|kitchen.*|liquor.*|lunch.*|meal.*|milk.*|obes.*|overate|overeat.*|overweight|pasta.*|pizza.*|restau.*|salad.*|sandwich.*|servings|skinni.*|skinny.*|smok.*|snack.*|soda.*|starve.*|starving|stuffed|sugar.*|supper.*|swallow.*|tast.*|tea|thirst.*|veget.*|veggie.*|waist.*|water|weigh |weighed|weighing.*|weighs|weight|whiskey.*|whisky.*|wine|wines)$'
p108
I34
tRp109
sS'Motion'
p110
g3
(S'^(act|action.*|advanc.*|appear|appeared|appearing|appears|approach.*|arrival.*|arrive|arrived|arrives|arriving|attend|attended|attending|attends|behavio.*|brief.*|bring|bringing|brings|brought|came|car|carried|carrier.*|carries|carry |carrying|catch|caught|change|changed|changes|changing|climb.*|closely|closes|closing|come|comes|coming|cross.*|cruis.*|danc.*|deliver.*|depart|departed|departing|departs|departure.*|disappear.*|drift.*|drive|driven|drives|driving|drove|enter|entered|entering|enters|explor.*|fall|fallen|falling|falls|fell|fill.*|fled|flee.*|flew|flies|flow.*|fly|flying|follow|followed|following|follows|forward.*|front|go|goes|going|gone|grew|grow|growing|grown|growth|hang|headed|heading|hik.*|increas.*|jog.*|journey.*|jump.*|lead.*|leave|leaves|leaving|led|motion.*|move|moved|movement.*|mover.*|moves|moving|pass|passed|passes|passing|pull.*|push.*|put|puts|putting|ran|receiv.*|remov.*|replace.*|replacing|ridden|ride|rides|riding|rise.*|rising|rode|run|runner.*|running|runs|rush.*|send.*|sent|shake.*|shook|slid|slide|slides|sliding|step|stepp.*|steps|stopper.*|swam|swim.*|threw|throw.*|took|transact.*|transport.*|travel.*|trip|tripped|tripping|trips|visit.*|walk|walked|walking|walks|went)$'
p111
I34
tRp112
sS'Negate'
p113
g3
(S"^(aint|ain't|arent|aren't|cannot|cant|can't|couldnt|couldn't|didnt|didn't|doesnt|doesn't|dont|don't|hadnt|hadn't|hasnt|hasn't|havent|haven't|isnt|isn't|mustnt|must'nt|mustn't|neednt|need'nt|needn't|negat.*|neither|never|no|nobod.*|none|nope|nor|not|nothing|nowhere|oughtnt|ought'nt|oughtn't|shant|shan't|shouldnt|should'nt|shouldn't|uhuh|wasnt|wasn't|weren't|without|wont|won't|wouldnt|wouldn't)$"
p114
I34
tRp115
sS'Achiev'
p116
g3
(S'^(abilit.*|master|able.*|mastered|accomplish.*|masterful.*|ace|mastering|achiev.*|mastermind.*|acquir.*|masters|acquisition.*|mastery|adequa.*|medal.*|advanc.*|mediocr.*|advantag.*|motiv.*|ahead|obtain.*|ambiti.*|opportun.*|approv.*|organiz.*|attain.*|originat.*|attempt.*|outcome.*|authorit.*|overcome|award.*|overconfiden.*|beat|overtak.*|beaten|perfect.*|best|perform.*|better|persever.*|bonus.*|persist.*|burnout.*|plan|capab.*|planned|celebrat.*|planner.*|challeng.*|planning|champ.*|plans|climb.*|potential.*|closure|power.*|compet.*|practice|conclud.*|prais.*|conclus.*|presiden.*|confidence|pride|confident|prize.*|confidently|produc.*|conquer.*|proficien.*|conscientious.*|progress|control.*|promot.*|create.*|proud.*|creati.*|purpose.*|crown.*|queen|defeat.*|queenly|determina.*|quit|determined|quitt.*|diligen.*|rank|domina.*|ranked|domote.*|ranking|driven|ranks|dropout.*|recover.*|earn.*|requir.*|effect.*|resolv.*|efficien.*|resourceful.*|effort.*|responsib.*|elit.*|reward.*|enabl.*|skill|endeav.*|skilled|excel.*|skills|fail.*|solution.*|finaliz.*|solve|first|solved|firsts|solves|founded|solving|founder.*|strateg.*|founding|strength.*|fulfill.*|striv.*|gain.*|strong.*|goal.*|succeed.*|hero.*|success.*|honor.*|super|honour.*|superb.*|ideal.*|surviv.*|importan.*|team.*|improve.*|top|improving|tried|inadequa.*|tries|incapab.*|triumph.*|incentive.*|try|incompeten.*|trying|ineffect.*|unable|initiat.*|unbeat.*|irresponsible.*|unproduc.*|king.*|unsuccessful.*|lazie.*|victor.*|lazy|win|lead.*|winn.*|lesson.*|wins|limit.*|won|lose|work |loser.*|workabl.*|loses|worked|losing|worker.*|loss.*|working.*|lost|works)$'
p117
I34
tRp118
sS'Swear'
p119
g3
(S'^(arse|arsehole.*|arses|ass|asses|asshole.*|bastard.*|bitch.*|bloody|boob.*|butt|butts|cock|cocks.*|crap|crappy|cunt.*|damn.*|dang|darn|dick|dicks|dumb.*|dyke.*|fuck|fucked.*|fucker.*|fuckin.*|fucks|goddam.*|heck|hell|homo|jeez|mofo|motherf.*|nigger.*|piss.*|prick.*|pussy.*|queer.*|screw.*|shit.*|sob|sonofa.*|suck|sucked|sucks|tit|tits|titties|titty|wanker.*)$'
p120
I34
tRp121
sS'Death'
p122
g3
(S'^(autops.*|alive|bereave.*|burial.*|buried|bury|casket.*|casualt.*|cemet.*|coffin.*|coroner.*|corpse.*|cremat.*|crypt.*|dead|death.*|decease.*|demise|die|died|dies|DOA|drown.*|dying|embalm.*|epidemic.*|execution.*|exterminat.*|fatal.*|funer.*|genocid.*|ghost.*|grave.*|grief|griev.*|hearse.*|holocaust.*|homocid.*|immortal.*|kill.*|lethal.*|lynch.*|manslaughter.*|massacre.*|mausoleum.*|morgue.*|mortal.*|mortician.*|mourn.*|murder.*|obit.*|od|oded|overdosed|pallbearer.*|plague.*|reaper.*|slaughter.*|suicid.*|tomb.*|urn.*|war)$'
p123
I34
tRp124
sS'Time'
p125
g3
(S"^(abrupt.*|like|after|long|afterlife.*|longe.*|aftermath.*|march.*|afternoon.*|meantime|afterthought.*|meanwhile|afterward.*|min|again|minute.*|age|modern.*|aged|moment.*|ages|monday.*|aging|month.*|ago|morning.*|ahead|never|already|new|always|newer|ancient.*|newest|annual.*|newly|anymore|next|anytime|night|april|nightly|august|nights|autumn|noon.*|awhile|november|back|now|before|occasional.*|began|oclock.*|begin|o'clock.*|beginn.*|october|begins|old|begun|olden|biannu.*|older|bimonth.*|oldest|birth.*|once|biweek.*|origin|born|past|busy|period.*|bye|perpetual.*|cease.*|preced.*|ceasing|present|centur.*|presently|childhood|prior|christmas.*|proceed.*|clock.*|quick.*|common|recency|constant |recent.*|constantly|recur.*|continu.*|repeat.*|current.*|repetit.*|cycle.*|respectively|dail.*|return.*|date.*|rhythm.*|day.*|saturday.*|decade.*|schedul.*|decay.*|season.*|december|seconds|delay.*|senior.*|due|september.*|during|sequen.*|earli.*|simultaneous.*|early|slow.*|end|sometime |ended|sometimes|ending|soon|ends|soone.*|era|sped|etern.*|speed.*|eve|spring|evening.*|start|event|started|eventually|starter.*|ever|starting|everyday|starts|fade.*|startup.*|fading.*|still|fast|stop|faster|stopped|fastest|stopper.*|february|stopping|final |stops|finally|subsequen.*|finish.*|sudden.*|first|summer.*|firstly|sunday.*|firsts|synch.*|followup.*|tempora.*|forever|term |former.*|terminat.*|forward.*|then|frequent|thursday.*|frequented|til|frequenting|till|frequently|time.*|frequents|timing|Friday.*|today.*|futur.*|tomorrow.*|generation.*|tonight.*|happening|tuesday.*|histor.*|until|hour.*|updat.*|hurrie.*|usual|hurry.*|usually|immediate|wednesday.*|immediately|week|immediateness|week'.*|immortal.*|weekend.*|inciden.*|weekl.*|infinit.*|weeks|initial.*|when|initiat.*|whenever|instan.*|while|interval.*|whilst|january|winter.*|july|year |june|yearly|last.*|years|late|yesterday.*|lately|yet|later|young.*|latest|youth.*)$"
p126
I34
tRp127
sS'CogMech'
p128
g3
(S"^(abandon.*|conflict.*|harness.*|needed|should've|absolute|confus.*|hazie.*|needing|sign|absolutely|conscious.*|hazy|neednt|since|abstain.*|consequen.*|held|need'nt|solution.*|accept|conserv.*|hence|needn't|solve|accepta.*|consider|hesita.*|needs|solved|accepted|considered|hold.*|neglect.*|solves|accepting|considering|hope|never|solving|accepts|considers|hoped|news|some|accura.*|constrain.*|hopeful|normal|somebod.*|acknowledg.*|constrict.*|hopefully|not|somehow|activat.*|contain.*|hopefulness|notice.*|someone.*|add|contemplat.*|hopes|noticing|something.*|addit.*|contingen.*|hoping|obedien.*|sometime|adjust.*|contradic.*|how|obey.*|sometimes|admit|control.*|hows|obscur.*|somewhat|admits|correct.*|how's|obstac.*|somewhere|admitted|correlat.*|hypothes.*|obvious.*|sort|admitting|cos|hypothetic.*|occasional.*|sorta|affect|could|idea|often|sortof|affected|couldnt|ideal.*|open|sorts|affecting|couldn't|ideas|opinion|sortsa|affects|couldve|identif.*|oppos.*|source.*|afterthought.*|could've|if|option|spose|aggravat.*|coz|ignit.*|or|standard|all|create.*|ignor.*|organiz.*|statement.*|allot|creati.*|imagin.*|origin|stiff.*|allow.*|curb.*|implica.*|originat.*|stimul.*|almost|curio.*|implicit.*|origins|stop|along|curtail.*|implie.*|ought|stopped|alot|cuz|imply.*|oughta|stopper.*|altogether|decid.*|impossib.*|oughtnt|stopping|always|decis.*|inact.*|ought'nt|stops|ambigu.*|deduc.*|inadequa.*|oughtn't|stories|anal|defenc.*|inclu.*|oughtve|story|analy.*|defens.*|incomplet.*|ought've|stubborn.*|and|define|indecis.*|out|subdue.*|answer.*|defined|indeed|outcome.*|suppose|any|defines|indefinit.*|outstanding|supposed|anybod.*|defining|independ.*|overall|supposes|anyhow|definite|indetermin.*|partly|supposing|anyone.*|definitely|indirect.*|perceiv.*|supposition.*|anything|definitive.*|induc.*|percept.*|suppress.*|anytime|delay.*|inevitab.*|perfect.*|sure.*|anywhere|denia.*|infallib.*|perhaps|suspect.*|apparent|denie.*|infer|permit.*|suspicio.*|apparently|deny.*|inferr.*|pick |taboo.*|appear|depend|infers|plus|tempora.*|appeared|depended|influenc.*|ponder.*|tentativ.*|appearing|depending|info|positiv.*|theor.*|appears|depends|inform|possib.*|therefor.*|appreciat.*|desir.*|information|practically|think|approximat.*|determina.*|informative.*|precis.*|thinker.*|arbitrar.*|determine|informed|prefer.*|thinking.*|around|determined|informing|presum.*|thinks|assum.*|determines|informs|pretty|thought|assur.*|determining|inhib.*|prevent.*|thoughts|attent.*|difference.*|inquir.*|probable|thus|attribut.*|differentiat.*|inside|probablistic.*|tidi.*|avert.*|directly|insight.*|probably|tidy|avoid.*|discern.*|inspir.*|problem.*|tight.*|aware.*|disciplin.*|intend.*|produc.*|total|ban|disclo.*|intent.*|prohib.*|totally|banned|discourag.*|interfer.*|proof|trigger.*|banning|discover.*|interpret.*|prove.*|true|bans|disorient.*|into|proving|truest|barely|disregard.*|invariab.*|provoc.*|truly|barrier.*|distinct.*|irrational.*|provok.*|truth.*|based|distinguish.*|irrefu.*|prude|typically|bases|doubt.*|issue|prudes|unaccept.*|basis|dubious.*|just|prudish.*|unambigu.*|became|dunno|justif.*|pure.*|unaware.*|because|duti.*|keep|purpose.*|uncertain.*|become|duty|keeping.*|puzzl.*|unclear.*|becomes|each|keeps|quer.*|undecided.*|becoming|effect.*|kept|question.*|undeniab.*|belief.*|either|kind (of)|quite|understand|believe|elicit.*|kinda|random.*|understandab.*|believed|enclos.*|kindof|rather|understanding.*|believes|enlighten.*|knew|rational.*|understands|believing|entire.*|know|react.*|understood|besides|essential|knowab.*|real |undesire.*|bet|evaluat.*|knower.*|reality|undetermin.*|bets|ever|knowing|realiz.*|undo |betting|every|knowledg.*|really|undoubt.*|binding|everybod.*|known|rearrang.*|unknow.*|blatant.*|everything.*|knows|reason.*|unless|block|evident.*|lack.*|recall.*|unlikel.*|blocked|exact.*|launch.*|reckon.*|unluck.*|blocker.*|examin.*|law|recogni.*|unneccess.*|blocking|except|lead.*|recollect.*|unneed.*|blocks|exclu.*|learn.*|reconcil.*|unquestion.*|blur.*|expect.*|led|reconsider.*|unrelat.*|borderline.*|experiment|lesson.*|reconstruct.*|unresolv.*|boss.*|explain|liabilit.*|reevaluat.*|unsettl.*|both|explained|likel.*|refer.*|unsure.*|bound.*|explaining|limit.*|reflect.*|unwant.*|brake.*|explains|link.*|refrain.*|uptight.*|bridle.*|explanat.*|logic.*|refus.*|use|but|explicit.*|lot|regardless|used|came|explor.*|lotof|regret.*|uses|careful.*|extremely|lots |rein.*|using|categor.*|fact|lotsa|relate.*|usually|caus.*|facts|lotta|relating|vague.*|caut.*|factual.*|luck|relation|variab.*|cease.*|fairly|lucked|reluctan.*|varies|ceasing|feel|lucki.*|rememb.*|vary|certain.*|feeling.*|luckless.*|reorgani.*|versus|chance|feels|lucks|repress.*|veto|change|felt|lucky|requir.*|vs|changed|fenc.*|made|reserved|wait|changes|figur.*|mainly|resolu.*|waited|changing|find.*|make |resolv.*|waiting|choice.*|forbid.*|maker.*|response|waits|choos.*|force.*|makes|responsib.*|wanna|clarif.*|forever|making|restrain.*|want|clear|forgave|manipul.*|restrict.*|wanted|clearly|forget.*|marginal.*|restructur.*|wanting|close|forgiv.*|matter.*|result.*|wants|closure|forgot.*|may|retain.*|we|cohere.*|found|maybe|rethink.*|whether|come|foundation.*|mean|reveal.*|wholly|commit|founded|meaning.*|revelat.*|why|commitment.*|founder.*|means|rigid.*|wish|commits|frankly|meant|root.*|wished|committ.*|fundamental|memor.*|safe.*|wishes|compel.*|fundamentalis.*|might|same|wishing|complete|fundamentally|mightve|save|with|completed|fundamentals|might've|secret|withheld|completely|fuzz.*|mind|secrets|withhold.*|completes|general|misle.*|seem|without|complex.*|generally|mistak.*|seemed|wonder|compliance|generate.*|misunder.*|seeming.*|wondered|complica.*|generating|most|seems|wondering|complie.*|generator.*|mostly|sense|wonders|comply.*|grasp.*|motiv.*|sensed|word|compreh.*|guarant.*|must|senses|would|compulsiv.*|guard.*|mustnt|sensing|wouldnt|concentrat.*|guess|must'nt|shaki.*|wouldn't|conclud.*|guessed|mustn't|shaky|wouldve|conclus.*|guesses|mustve|should|would've|confess.*|guessing|must've|shouldnt|write|confidence|halfass.*|myster.*|should'nt|writing|confident|halt.*|name|shouldn't|wrote|confidently|hangup.*|nearly|shoulds|yearn.*|confin.*|hardly|necessar.*|shouldve|yield.*|need)$"
p129
I34
tRp130
sS'Nonflu'
p131
g3
(S'^(er|hm.*|sigh|uh|um|umm.*|well|zz.*)$'
p132
I34
tRp133
sS'Pronoun'
p134
g3
(S"^(anybod.*|anyone.*|anything|everybod.*|everyone.*|everything.*|hed|he'd|her|hers|herself|hes|he's|him|himself|his|i|Id|I'd|I'll|Im|I'm|it|itd|it'd|itll|it'll|its|it's|itself|ive|I've|lets|let's|me|mine|my|myself|nobod.*|oneself|other|others|our|ours|ourselves|she|she'd|she'll|shes|she's|somebod.*|someone.*|something.*|somewhere|stuff|that|thatd|that'd|thatll|that'll|thats|that's|thee|their.*|them|themselves|these|they|theyd|they'd|theyll|they'll|theyve|they've|thine|thing.*|this|those|thou|thoust|thy|us|we|we'd|we'll|we're|weve|we've|what|whatever|whats|what's|which|whichever|who|whod|who'd|wholl|who'll|whom|whose|ya|yall|y'all|ye|you|youd|you'd|youll|you'll|your |youre|you're|yours|youve|you've)$"
p135
I34
tRp136
sS'Family'
p137
g3
(S"^(aunt.*|bro|bros|brother.*|cousin.*|dad.*|daughter.*|ex|exes|exhubby.*|exhusband.*|exwife.*|exwive.*|families.*|family|father.*|folks|grandchil.*|granddad.*|granddau.*|grandf.*|grandkid.*|grandm.*|grandpa.*|grandson.*|granny|hubby|husband.*|kin|ma|marrie.*|ma's|mom|momma.*|mommy.*|moms|mom's|mother|mothers|mum|mummy.*|mums|mum's|nephew.*|niece.*|pa|pappy|parent.*|pa's|relatives|sis|sister.*|son|sons|son's|spous.*|stepchild.*|stepfat.*|stepkid.*|stepmot.*|uncle|uncles|uncle's|wife.*|wive.*)$"
p138
I34
tRp139
sS'Funct'
p140
g3
(S"^(a|he's|since|about|highly|singl.*|above|him|six.*|absolutely|himself|so|across|his|some|actually|hopefully|somebod.*|after|how|somehow|again|however|someone.*|against|hundred.*|something.*|ahead|i|somewhat|aint|Id|somewhere|ain't|I'd|soon|all|if|sooo.*|allot|I'll|still|along|Im|stuff|alot|I'm|such|also|immediately|ten|although|in|tenth|am|infinit.*|than|among.*|inside|that|an|insides|thatd|and|instead|that'd|another|into|thatll|any|is|that'll|anybod.*|isnt|thats|anymore|isn't|that's|anyone.*|it|the|anything|itd|thee|anyway.*|it'd|their.*|anywhere|item.*|them|apparently|itll|themselves|are|it'll|then|arent|its|there|aren't|it's|theres|around|itself|there's|as|ive|these|at|I've|they|atho|just|theyd|atop|lack.*|they'd|away|lately|theyll|back|least|they'll|basically|less|theyre|be|let|they're|became|lets|theyve|because|let's|they've|become|loads|thine|becomes|lot|thing.*|becoming|lotof|third|been|lots|thirt.*|before|lotsa|this|behind|lotta|tho|being|main|those|below|many|thou|beneath|may|though|beside|maybe|thousand.*|besides|me|thoust|best |might|three|between|mightve|through.*|beyond|might've|thru|billion.*|million.*|thy|both|mine|til|bunch|more|till|but|most|to|by|mostly|ton|can|much|tons|cannot|mucho|too|cant|must|total|can't|mustnt|totally|cetera|must'nt|toward.*|clearly|mustn't|trillion.*|completely|mustve|tripl.*|constantly|must've|truly|could|my|twel.*|couldnt|myself|twent.*|couldn't|near|twice|couldve|nearly|two|could've|neednt|uhuh|couple|need'nt|under|cuz|needn't|underneath|definitely|negat.*|unique|despite|neither|unless|did|never|until|didnt|nine.*|unto|didn't|no|up|difference.*|nobod.*|upon|do|none|us|does|nope|usually|doesnt|nor|various|doesn't|not|very|doing|nothing|wanna|done|now|was|dont|nowhere|wasnt|don't|of|wasn't|doubl.*|off|we|down|often|we'd|dozen.*|on|well|during|once|we'll|each|one|were|eight.*|ones |we're|either|oneself|weren't|eleven|only|weve|else|onto|we've|enough|or|what|entire.*|other|whatever|equal.*|others|whats|especially|otherwise|what's|etc|ought|when|even|oughta|whenever|eventually|oughtnt|where|ever|ought'nt|whereas|every|oughtn't|wheres|everybod.*|oughtve|where's|everyone.*|ought've|whether|everything.*|our|which|example.*|ours|whichever|except|ourselves|while|extenet|out|who|extra|outside|whod|extremely|over|who'd|fairly|own|whole|few.*|part|wholl|fift.*|partly|who'll|first|perhaps|whom|firstly|piec.*|whose|firsts|plenty|will|five|plus|with|for|primarily|within|form|probably|without|four.*|quarter.*|wont|frequently|quick.*|won't|from|rarely|worst|full.*|rather|would|generally|really|wouldnt|greater|remaining|wouldn't|greatest|rest|wouldve|had|same|would've|hadnt|second|ya|hadn't|section|yall|half|seriously|y'all|has|seven.*|ye|hasnt|several|yet|hasn't|shall|you|have|shant|youd|havent|shan't|you'd|haven't|she|youll|having|she'd|you'll|hed|she'll|your |he'd|shes|youre|her|she's|you're|here|should|yours|heres|shouldnt|youve|here's|should'nt|you've|hers|shouldn't|zero|herself|shouldve|zillion.*|hes|should've)$"
p141
I34
tRp142
sS'Feel'
p143
g3
(S"^(brush.*|caress.*|cold.*|cool.*|drie.*|drily|dry.*|edge|edges|edging|feel|feeling.*|feels|felt|finger.*|fire|flexib.*|fragil.*|freez.*|froze.*|fuzz.*|grab.*|grip|gripp.*|grips|hair.*|hand|handful.*|hands|hard|harde.*|heavie.*|heavy.*|hot|hott.*|leather.*|limp.*|loose.*|press|pressed|presser.*|presses|rough.*|round.*|rub|rubbed|rubbing|rubs|sand|sands|sandy|scratch.*|sharp.*|silk.*|skin|skin'.*|smooth.*|soft.*|squeez.*|stroke.*|stroki.*|thick.*|thin|thinn.*|tight.*|touch.*|warm.*|weight|weighted|weighting|weightless.*|weightlift.*|weights|wet|wetly)$"
p144
I34
tRp145
sS'Certain'
p146
g3
(S"^(absolute|absolutely|accura.*|all|altogether|always|apparent|assur.*|blatant.*|certain.*|clear|clearly|commit|commitment.*|commits|committ.*|complete|completed|completely|completes|confidence|confident|confidently|correct.*|defined|definite|definitely|definitive.*|directly|distinct.*|entire.*|essential|ever|every|everybod.*|everything.*|evident.*|exact.*|explicit.*|extremely|fact|facts|factual.*|forever|frankly|fundamental|fundamentalis.*|fundamentally|fundamentals|guarant.*|implicit.*|indeed|inevitab.*|infallib.*|invariab.*|irrefu.*|must|mustnt|must'nt|mustn't|mustve|must've|necessar.*|never|obvious.*|perfect.*|positiv.*|precis.*|proof|prove.*|pure.*|sure.*|total|totally|true|truest|truly|truth.*|unambigu.*|undeniab.*|undoubt.*|unquestion.*|wholly)$"
p147
I34
tRp148
sS'Insight'
p149
g3
(S'^(accept|informs|accepta.*|inquir.*|accepted|insight.*|accepting|inspir.*|accepts|interpret.*|acknowledg.*|justif.*|adjust.*|knew|admit|know|admits|knowab.*|admitted|knower.*|admitting|knowing|afterthought.*|knowledg.*|analy.*|known|answer.*|knows|appreciat.*|learn.*|assum.*|lesson.*|attent.*|link.*|aware.*|logic.*|became|mean|become|meaning.*|becomes|means|becoming|meant|belief.*|memor.*|believe|misunder.*|believed|motiv.*|believes|notice.*|believing|noticing|categor.*|perceiv.*|choice.*|percept.*|choos.*|ponder.*|clarif.*|prefer.*|closure|presum.*|cohere.*|prove.*|complex.*|proving|complica.*|quer.*|compreh.*|question.*|concentrat.*|rational.*|conclud.*|realiz.*|conclus.*|rearrang.*|confess.*|reason.*|conscious.*|recall.*|consider|reckon.*|considered|recogni.*|considering|recollect.*|considers|reconcil.*|contemplat.*|reconsider.*|correlat.*|reconstruct.*|curio.*|reevaluat.*|decid.*|refer.*|decis.*|reflect.*|deduc.*|relate.*|define|relating|defines|relation|defining|rememb.*|determina.*|reorgani.*|determine|resolu.*|determined|resolv.*|determines|restructur.*|determining|rethink.*|differentiat.*|reveal.*|discern.*|revelat.*|disclo.*|secret|discover.*|secrets|distinguish.*|seem|effect.*|seemed|enlighten.*|seeming.*|evaluat.*|seems|examin.*|sense|explain|sensed|explained|senses|explaining|sensing|explains|solution.*|explanat.*|solve|explor.*|solved |feel|solves|feeling.*|solving|feels|statement.*|felt|suspect.*|figur.*|suspicio.*|find.*|think|forgave|thinker.*|forgiv.*|thinking.*|found|thinks|grasp.*|thought|idea|thoughts|ideas|unaccept.*|identif.*|unaware.*|imagin.*|understand|induc.*|understandab.*|infer|understanding.*|inferr.*|understands|infers|understood|info|unrelat.*|inform|wonder|information|wondered|informative.*|wondering|informed|wonders|informing)$'
p150
I34
tRp151
sS'Assent'
p152
g3
(S'^(absolutely|agree|ah|alright.*|aok|aw|awesome|cool|duh|ha|hah|haha.*|heh.*|hm.*|huh|lol|mm.*|ok|okay|okey.*|rofl|uhhu.*|uhuh|yah|yay|yea|yeah|yep.*|yes|yup)$'
p153
I34
tRp154
sS'Sad'
p155
g3
(S'^(abandon.*|ache.*|aching|agoniz.*|agony|alone|broke|cried|cries|crushed|cry|crying|damag.*|defeat.*|depress.*|depriv.*|despair.*|devastat.*|disadvantage.*|disappoint.*|discourag.*|dishearten.*|disillusion.*|dissatisf.*|doom.*|dull.*|empt.*|fail.*|fatigu.*|flunk.*|gloom.*|grave.*|grief|griev.*|grim.*|heartbreak.*|heartbroke.*|helpless.*|homesick.*|hopeless.*|hurt.*|inadequa.*|inferior.* |isolat.*|lame.*|lone.*|longing.*|lose|loser.*|loses|losing|loss.*|lost|low.*|melanchol.*|miser.*|miss|missed|misses|missing|mourn.*|neglect.*|overwhelm.*|pathetic.*|pessimis.*|piti.*|pity.* |regret.*|reject.*|remorse.*|resign.*|ruin.*|sad|sadde.*|sadly|sadness|sob|sobbed|sobbing|sobs|solemn.*|sorrow.*|suffer|suffered|sufferer.*|suffering|suffers|tears|traged.*|tragic.* |unhapp.*|unimportant|unsuccessful.*|useless.* |weep.*|wept|whine.*|whining|woe.*|worthless.* |yearn.*)$'
p156
I34
tRp157
sS'Article'
p158
g3
(S'^(a|alot|an|the)$'
p159
I34
tRp160
sS'See'
p161
g3
(S'^(beaut.*|black|blacke.*|blackish.*|blacks|blind.*|blond.*|blue.*|bright.*|brown.*|candle.*|circle|click.*|color.*|colour.*|column.*|cream|eye.*|eying|gaz.*|glanc.*|glow.*|gray.*|green.*|grey.*|image.*|lit|look|looked|looker.*|looking|looks|orange.*|picture|pink.*|purpl.*|rectang.*|red|redde.*|reddish.*|redness|reds|round.*|saw|scan|scann.*|scans|screen|see|seeing|seen|seer|sees|shine|shini.*|shiny|sight.*|squar.*|stare.*|staring|sunli.*|sunshin.*|triang.*|view|viewer.*|viewing.*|views|vivid.*|watch.*|white.*|whitish.*|yellow.*)$'
p162
I34
tRp163
sS'Future'
p164
g3
(S"^(couldve|could've|gonna|gotta|he'll|I'll|itll|it'll|may|might|must|mustnt|must'nt|mustn't|mustve|must've|ought|oughta|oughtnt|ought'nt|oughtn't|oughtve|ought've|shall|she'll|should|shouldnt|should'nt|shouldn't|shouldve|should've|thatll|that'll|theyll|they'll|we'll|wholl|who'll|will|wont|won't|would|wouldnt|wouldn't|wouldve|would've|youll|you'll)$"
p165
I34
tRp166
sS'Adverbs'
p167
g3
(S"^(about|absolutely|actually|again|also|anyway.*|anywhere|apparently|around|back|basically|beyond|clearly|completely|constantly|definitely|especially|even|eventually|ever|frequently|generally|here|heres|here's|hopefully|how|however|immediately|instead|just|lately|maybe|mostly|nearly|now|often|only|perhaps|primarily|probably|push.*|quick.*|rarely|rather|really|seriously|simply|so|somehow|soon|sooo.*|still|such|there|theres|there's|tho|though|too|totally|truly|usually|very|well|when |whenever|where|yet)$"
p168
I34
tRp169
sS'Numbers'
p170
g3
(S'^(billion.*|dozen.*|eight.*|eleven|fift.*|first|firstly|firsts|five|four.*|half|hundred.*|infinit.*|million.*|nine.*|once|one|quarter.*|second|seven.*|six.*|ten|tenth|third|thirt.*|thousand.*|three|trillion.*|twel.*|twent.*|twice|two|zero|zillion.*)$'
p171
I34
tRp172
sS'Money'
p173
g3
(S'^(account.*|jackpot.*|atm|kopek.*|atms|kron.*|auction.*|lease.*|audit|leasing.*|audited|lira|auditing|loan.*|auditor|lotter.*|auditors|mastercard.*|audits|merchant.*|bank.*|money.*|bargain.*|monopol.*|beggar.*|mortg.*|begging|nickel.*|bet|overpaid|bets|overtime|betting|owe |bill|owed|billed|owes|billing.*|owing|bills|paid|bonus.*|pay.*|borrow.*|pence|bought|pennies|broker.*|penny|buck|peso|bucks|pesos|budget.*|poor.*|business.*|portfolio.*|buy.*|poverty.*|cash.*|price.*|casino.*|prici.*|cent|profit.*|cents|purchas.*|charit.*|rebate.*|cheap.*|recession.*|check|refund.*|checking|reimburs.*|checks|rent.*|chequ.*|retail.*|coin|revenue.*|coins|rich.*|compensat.*|ruble.*|consumer.*|rupee.*|corporat.*|salar.*|cost.*|sale|coupon.*|sales|credit.*|saving.*|currenc.*|scholarship.*|customer.*|sell|debit.*|seller.*|debt.*|selling|deposit.*|sells|dime.*|shilling.*|dinar.*|shop|dinero|shopaholic.*|discount.*|shopp.*|dividend.*|shops|dollar.*|sold|donat.*|spend|econ.*|spender|embezzl.*|spending|euro|spends|euros|spent|exchang.*|stipend.*|expens.*|stocks|fee|store|fees|tax|financ.*|taxa.*|fortune.*|taxed|franc|taxes|franchis.*|taxing|francs|thrift.*|free|trade.*|freeb.*|trading|fund|tuition|funded|underpaid|funding|value|funds|visa.*|gambl.*|wage|greed.*|wager.*|income.*|wages|inexpens.*|wealth.*|inherit.*|worth|insurance|yen|invest.*|yuan|IRS)$'
p174
I34
tRp175
sS'Anger'
p176
g3
(S'^(abuse.*|jealous.*|abusi.*|jerk|aggravat.*|jerked|aggress.*|jerks|agitat.*|kill.*|anger.*|liar.*|angr.*|lied|annoy.*|lies|antagoni.*|lous.*|argh.*|ludicrous.*|argu.*|lying|arrogan.*|mad|assault.*|maddening|asshole.*|madder|attack.*|maddest|bastard.*|maniac.*|battl.*|mock|beaten|mocked|bitch.*|mocker.*|bitter.*|mocking|blam.*|mocks|bother.*|molest.*|brutal.*|moron.*|cheat.*|murder.*|confront.*|nag.*|contempt.*|nast.*|contradic.*|obnoxious.*|crap|offence.*|crappy|offend.*|critical|offens.*|critici.*|outrag.*|crude.*|paranoi.*|cruel.*|pettie.*|cunt.*|petty.*|cut|piss.*|cynic.*|poison.*|damn.*|prejudic.*|danger.*|prick.*|defenc.*|protest|defens.*|protested|despis.*|protesting|destroy.*|punish.*|destruct.*|rage.*|disgust.*|raging|distrust.*|rape.*|domina.*|raping|dumb.*|rapist.*|dump.*|rebel.*|enemie.*|resent.*|enemy.*|revenge.*|enrag.*|ridicul.*|envie.*|rude.*|envious|sarcas.*|envy.*|savage.*|evil.*|sceptic.*|feroc.*|screw.*|feud.*|shit.*|fiery|sinister|fight.*|skeptic.*|foe.*|smother.*|fought|snob.*|frustrat.*|spite.*|fuck|stubborn.*|fucked.*|stupid.*|fucker.*|suck|fuckin.*|sucked|fucks|sucker.*|fume.*|sucks|fuming|sucky|furious.*|tantrum.*|fury|teas.*|goddam.*|temper|greed.*|tempers|grouch.*|terrify|grr.*|threat.*|harass.*|ticked|hate|tortur.*|hated|trick.*|hateful.*|ugl.*|hater.*|vicious.*|hates|victim.*|hating|vile|hatred|villain.*|heartless.*|violat.*|hell|violent.*|hellish|war|hostil.*|warfare.*|humiliat.*|warred|idiot.*|warring|insult.*|wars|interrup.*|weapon.*|intimidat.*|wicked.*)$'
p177
I34
tRp178
sS'Home'
p179
g3
(S'^(address|apartment.*|backyard|bake.*|baking|balcon.*|bath.*|bed|bedding|bedroom.*|beds|blender.*|broom.*|carpet.*|chore.*|clean.*|closet|closets|condo|condominium.*|condos|couch.*|curtain.*|den|dishwasher.*|doghouse.*|domestic.*|door.*|dorm.*|drape.*|dresser.*|driveway.*|duplex.*|families.*|family|fireplace.*|fridge.*|furniture|futon.*|garage.*|garden.*|gate.*|home|homes|homesick.*|homework.*|house.*|housing|kitchen.*|landlord.*|lawn.*|lease.*|leasing.*|loft|lofts|loveseat.*|maid.*|mailbox|mattress.*|microwave.*|mop|mortg.*|neighbor.*|oven.*|patio.*|pet|pets|pillow.*|porch|remodel.*|renovat.*|rent.*|residen.*|room|roomate.*|roomed|roomie.*|rooming|roommate.*|rooms|rug|rugs|shower.*|sofa.*|stove.*|studio|studios|sweep.*|tenant.*|toaster.*|vacuum.*|window.*|yard)$'
p180
I34
tRp181
sS'Conj'
p182
g3
(S'^(also|although|and|as|altho |because|but|cuz|how|however|if|nor|or|otherwise|plus|so|then|tho|though|til|till|unless|until|when|whenever|whereas|whether|while)$'
p183
I34
tRp184
sS'Anx'
p185
g3
(S'^(afraid|alarm.*|anguish.*|anxi.*|apprehens.*|asham.*|aversi.*|avoid.*|awkward.*|confus.*|craz.*|desperat.*|discomfort.*|distract.*|distraught|distress.*|disturb.*|doubt.*|dread.*|dwell.*|embarrass.*|emotional|fear|feared|fearful.*|fearing|fears|frantic.*|fright.*|guilt.*|hesita.*|horr.*|humiliat.*|impatien.*|inadequa.*|indecis.*|inhib.*|insecur.*|irrational.*|irrita.*|miser.*|nervous.*|neurotic.*|obsess.*|overwhelm.*|panic.*|petrif.*|phobi.*|pressur.*|reluctan.*|repress.*|restless.*|rigid.*|risk.*|scare.*|scaring|scary|shake.*|shaki.*|shaky|shame.*|shook|shy.*|sicken.*|startl.*|strain.*|stress.*|struggl.*|stunned|stuns|suspicio.*|tense.*|tensing|tension.*|terrified|terrifies|terrify |terrifying|terror.*|timid.*|trembl.*|turmoil|uncertain.*|uncomfortabl.*|uncontrol.*|uneas.*|unsure.*|upset.*|uptight.*|vulnerab.*|worr.*)$'
p186
I34
tRp187
sS'Negemo'
p188
g3
(S'^(abandon.*|enrag.*|maddening|snob.*|abuse.*|envie.*|madder|sob|abusi.*|envious|maddest|sobbed|ache.*|envy.*|maniac.*|sobbing|aching|evil.*|masochis.*|sobs|advers.*|excruciat.*|melanchol.*|solemn.*|afraid|exhaust.*|mess|sorrow.*|aggravat.*|fail.*|messy|sorry|aggress.*|fake|miser.*|spite.*|agitat.*|fatal.*|miss|stammer.*|agoniz.*|fatigu.*|missed|stank|agony|fault.*|misses|startl.*|alarm.*|fear|missing|steal.*|alone|feared|mistak.*|stench.*|anger.*|fearful.*|mock|stink.*|angr.*|fearing|mocked|strain.*|anguish.*|fears|mocker.*|strange|annoy.*|feroc.*|mocking|stress.*|antagoni.*|feud.*|mocks|struggl.*|anxi.*|fiery|molest.*|stubborn.*|apath.*|fight.*|mooch.*|stunk|appall.*|fired|moodi.*|stunned|apprehens.*|flunk.*|moody|stuns|argh.*|foe.*|moron.*|stupid.*|argu.*|fool.*|mourn.*|stutter.*|arrogan.*|forbid.*|murder.*|submissive.*|asham.*|fought|nag.*|suck|assault.*|frantic.*|nast.*|sucked|asshole.*|freak.*|needy|sucker.*|attack.*|fright.*|neglect.*|sucks|aversi.*|frustrat.*|nerd.*|sucky|avoid.*|fuck|nervous.*|suffer|awful|fucked.*|neurotic.*|suffered|awkward.*|fucker.*|numb.*|sufferer.*|bad|fuckin.*|obnoxious.*|suffering|bashful.*|fucks|obsess.*|suffers|bastard.*|fume.*|offence.*|suspicio.*|battl.*|fuming|offend.*|tantrum.*|beaten|furious.*|offens.*|tears|bitch.*|fury|outrag.*|teas.*|bitter.*|geek.*|overwhelm.*|temper|blam.*|gloom.*|pain|tempers|bore.*|goddam.*|pained|tense.*|boring|gossip.*|painf.*|tensing|bother.*|grave.*|paining|tension.*|broke|greed.*|pains|terribl.*|brutal.*|grief|panic.*|terrified|burden.*|griev.*|paranoi.*|terrifies|careless.*|grim.*|pathetic.*|terrify|cheat.*|gross.*|peculiar.*|terrifying|complain.*|grouch.*|perver.*|terror.*|confront.*|grr.*|pessimis.*|thief|confus.*|guilt.*|petrif.*|thieve.*|contempt.*|harass.*|pettie.*|threat.*|contradic.*|harm|petty.*|ticked|crap|harmed|phobi.*|timid.*|crappy|harmful.*|piss.*|tortur.*|craz.*|harming|piti.*|tough.*|cried|harms|pity.* |traged.*|cries|hate|poison.*|tragic.* |critical|hated|prejudic.*|trauma.*|critici.*|hateful.*|pressur.*|trembl.*|crude.*|hater.*|prick.*|trick.*|cruel.*|hates|problem.*|trite|crushed|hating|protest|trivi.*|cry|hatred|protested|troubl.*|crying|heartbreak.*|protesting|turmoil|cunt.*|heartbroke.*|puk.*|ugh|cut|heartless.*|punish.*|ugl.*|cynic.*|hell|rage.*|unattractive|damag.*|hellish|raging|uncertain.*|damn.*|helpless.*|rancid.*|uncomfortabl.*|danger.*|hesita.*|rape.*|uncontrol.*|daze.*|homesick.*|raping|uneas.*|decay.*|hopeless.*|rapist.*|unfortunate.*|defeat.*|horr.*|rebel.*|unfriendly|defect.*|hostil.*|reek.*|ungrateful.*|defenc.*|humiliat.*|regret.*|unhapp.*|defens.*|hurt.*|reject.*|unimportant|degrad.*|idiot|reluctan.*|unimpress.*|depress.*|ignor.*|remorse.*|unkind|depriv.*|immoral.*|repress.*|unlov.*|despair.*|impatien.*|resent.*|unpleasant|desperat.*|impersonal|resign.*|unprotected|despis.*|impolite.*|restless.*|unsavo.*|destroy.*|inadequa.*|revenge.*|unsuccessful.*|destruct.*|indecis.*|ridicul.*|unsure.*|devastat.*|ineffect.*|rigid.*|unwelcom.*|devil.*|inferior.* |risk.*|upset.*|difficult.*|inhib.*|rotten|uptight.*|disadvantage.*|insecur.*|rude.*|useless.* |disagree.*|insincer.*|ruin.*|vain|disappoint.*|insult.*|sad|vanity|disaster.*|interrup.*|sadde.*|vicious.*|discomfort.*|intimidat.*|sadly|victim.*|discourag.*|irrational.*|sadness|vile|disgust.*|irrita.*|sarcas.*|villain.*|dishearten.*|isolat.*|savage.*|violat.*|disillusion.*|jaded|scare.*|violent.*|dislike|jealous.*|scaring|vulnerab.*|disliked|jerk|scary|vulture.*|dislikes|jerked|sceptic.*|war|disliking|jerks|scream.*|warfare.*|dismay.*|kill.*|screw.*|warred|dissatisf.*|lame.*|selfish.*|warring|distract.*|lazie.*|serious|wars|distraught|lazy|seriously|weak.*|distress.*|liabilit.*|seriousness|weapon.*|distrust.*|liar.*|severe.*|weep.*|disturb.*|lied|shake.*|weird.*|domina.*|lies|shaki.*|wept|doom.*|lone.*|shaky|whine.*|dork.*|longing.*|shame.*|whining|doubt.*|lose|shit.*|whore.*|dread.*|loser.*|shock.*|wicked.*|dull.*|loses|shook|wimp.*|dumb.*|losing|shy.*|witch|dump.*|loss.*|sicken.*|woe.*|dwell.*|lost|sin|worr.*|egotis.*|lous.*|sinister|worse.*|embarrass.*|low.*|sins|worst|emotional|luckless.*|skeptic.*|worthless.* |empt.*|ludicrous.*|slut.*|wrong.*|enemie.*|lying|smother.*|yearn.*|enemy.*|mad|smug.*)$'
p189
I34
tRp190
sS'Sexual'
p191
g3
(S"^(abortion.*|aids|arous.*|ass|asses|bi|boner.*|boob.*|breast.*|butt|butts|butt's|chlamydia|cock|cocks.*|condom|condoms|cuddl.*|dick|dicks|dyke.*|erectile|erection.*|erotic.*|foreplay|fuck|fucked.*|fucker.*|fuckin.*|fucks|gay|gays|genital.*|gonorrhea|hiv|ho|homo|homos|homosexual.*|hornie.*|horny|hug|hugg.*|hugs|hump.*|incest.*|jissom|jizz|kiss.*|lesbian.*|libid.*|love|loved|lover.*|loves|lust.*|makeout.*|naked|nipple.*|nude.*|orgasm.*|orgies|orgy|ovar.*|passion.*|penis.*|perver.*|porn.*|pregnan.*|prostat.*|prostitu.*|prude|prudes|prudish.*|pubic|pussy.*|queer.*|rape.*|raping|rapist.*|screw.*|seduc.*|sex.*|slut.*|std.*|stud|syphili.*|tit|tits|titties|titty|vagina.*|vd|virgin.*|whore.*|womb.*)$"
p192
I34
tRp193
s.